(lp0
ccopy_reg
_reconstructor
p1
(cgarbler
Circuit
p2
c__builtin__
object
p3
Ntp4
Rp5
(dp6
S'poss_inputs'
p7
(lp8
(dp9
I0
S'QU5bV3sgNaVcC2Zsan6fzzQWPUIefDSQb_4Z4i-nf7I='
p10
sI1
S'wuJ8E3ewHn-xZ0q9tWHnDrOj_av_wntNyew1ZmGRdFA='
p11
sa(dp12
I0
S'Npp1ppSM8tHSJby5do25IecH7GiEFV_SMwgQcZV5izc='
p13
sI1
S'_ntJXBAOHYEM7WT3NF1DK9c11toK88Q3zkJumG1kxTc='
p14
sa(dp15
I0
S'GDAZQ8kQjUqOD6mE5DtpSlVc7nKAHVsfP_8ftrWt6WI='
p16
sI1
S'd4TRT3psMV_F11kl129A1im9Nf4xof_TKlppKoJzVMQ='
p17
sa(dp18
I0
S'SXuQrQ5XRlWsuZytm9ITyMDQW4c57PbAMV3aQMj_ZYk='
p19
sI1
S'h0kT5AecRrFTGLVOngmvMrdOQtpED-KLuUqHQMW-mnc='
p20
sasS'gates'
p21
(dp22
I0
g1
(cgarbler
OnInputGate
p23
g3
Ntp24
Rp25
(dp26
S'inputs'
p27
(dp28
I0
I0
sI1
I1
ssS'g_id'
p29
I0
sS'outputs'
p30
(dp31
I0
S'y_BPWyFkskYpIXudRqQY47oBu2Gyi7gDi0JRV14f5P0='
p32
sI1
S'NgSyUxM7WYqVpM13OrqfyVMA2NLl9NaIqND-V8pJoXc='
p33
ssS'circuit'
p34
g5
sS'table'
p35
(lp36
S'gAAAAABbyBFiJa_mtyTDS0NXcaCOD3flY_y0ujrPGpNiYka4Uxr7BM6OTqpcGiMovHFcAkcyBB8D-jKLLfAdI28zT3SZuXqztnrHcJBjZcaVZMC5eP9q4U56nc_xIhW79Nc1-qQVLG7Q872DbpezN-Y_dHvxMkOKngYYBZJctvIipKb7xFEfmkLIYfVs5b62dxjj1BQ2lGVpPfmtaDjgmRJ-p0qYmuVaRuWMqvon2whma0fjPdk3h2WmaYfyPzfqBkMG5SCHWT1q'
p37
aS'gAAAAABbyBFidNPP-PakCKpEvmGeBX5kvGSPpmXjvcUgtonpKTUY7KfTmiyIvWPzylYEYuAe6WGL6sV__bB2XfOxyr-AnPcvzmiGLbwzUf_2kjzbvbz4x0IgVTqgwH280TATF9kRLb_uMEvUGNYNrsqX2Zh2xyzCd_AM8I2q4j058OA__H7Sn6GqcktfJ_NJ9BQ-s-_AgcOsv08M-kcZA1GVX_OPwxofcxdXPWlDM1kKUH44LCZFa7BBf_b1Dm-Y4bWpvJkEPZQA'
p38
aS'gAAAAABbyBFiONv7n0v6pFO6MfqShttmqQEWAjB9hJyxKupBCDdeyhNWqHb2-zUcIWaIs5NfF6axPkGZqN5xKJGbxImwspuAr3yrcrBeiU8F7uvjEL7FGZ6hPC4iSVrsV2azn0BhbPx6Q9ln5N-L8nGve84OqqiO7HtW9LFvr_Y6Lbj-EYV_SUm4bvU_HFQxrmmfWyLHGguA6dfKfN5taG_VAloL6wFwc-Fho93h0L8RBvPt8-pKIEnHYY6vOrd19ciVTihRBM3h'
p39
aS'gAAAAABbyBFiVezbpI2DiU-3XtFgHC-3vgUP53WTSikuDZpV8wgdWCZVmruzQuM0neYryyjL4jshXtoBTXQo7Hu5AIwuNrdYeaCFBshN3U4FV2U5l87h08Zv-0B-iwTaq_vgtYLsi704fqHqI_hHprCJDa3eLiymPJCFCul0eQCgu4o1bhoc_Cgx8i257KH0LA4XPKNNFwHVX4IvT7-YN9meNWBdwXMFSTNRS_NrvXre36BzWVB8QK02-zivQ_Va7j9Mcd0_cJu-'
p40
asS'output'
p41
NsbsI1
g1
(g23
g3
Ntp42
Rp43
(dp44
g27
(dp45
I0
I2
sI1
I3
ssg29
I1
sg30
(dp46
I0
S'lIIQeH-tnarCNa8gp-QNoiNcfxtTRaMhDn36U-qXgsA='
p47
sI1
S'rdvQ-tMcJZZrjehBJBtpNH-OCyXJXfzs4ubHCv03VRA='
p48
ssg34
g5
sg35
(lp49
S'gAAAAABbyBFiLRA0Dne0M2IIN2c0ngG6eXqHVBi38Br3O7bdCcfKEReMq97yUIQwLOaEMBaXC6lkjxG6Yi78xbELcd8EHQ_k6lWIj341YGUmx9oVAst6Qu2ap3BXbyvJ6XbaTvcAuo1-4mDpEzTuY7NeMfJ43OeM5qeGw8yTmGOaZYujoDRqSqxoIt2x6LB-K1vD97RRRUrT-IctYn69JsrdRIas6LaWNZwCLX9vd95nYW-EOi6sg2IJ7vS0swmcs04rIBbLxqk8'
p50
aS'gAAAAABbyBFix2OTqiS-h0QOb-rWO7Inj1q7CJHooKeVHHDz5sJu_Nx9zlay1yAxVY6LEfiVi-y-waIoB6TKDXYpGQMlyBFqWS1SAwS8GmUoOma8rxu5bStpYoN6BjdDJTxlGD8yeRp_76sJLaTTSM9KJE_BjvxM7ouGOH4AFCDFpomJBKhDC3a6yy1J_eUp5azFol3SqThwTRGwfrONkb4vmor_nI6TgUMGs38A1ZA1hYnlaq3TgvPzuD4UEMEy68qzfamF2K76'
p51
aS'gAAAAABbyBFiT8UPUq-aQuUkR2bd8cGtQzVg7Rh6VAI4C_6IcEVXDFnSND7tleXw6Hz3N4oi1puwp6gSM7Id-iBXMyyVLuupxkbReXkANNW_wbr77z7ZRpn1ehFeTETtoX4cDSb0o2OxsttobotA8VAhrPQRQe0Reqmt6VLwepRNrsYKXHEImVqr7H9_SkHqvhr0xZd9bDDpjUILVoxr_GlgSPkL7c-1JoQ3u2wD4LqmRbtpDC1FFTuTOvQP5vhLKJquqBdvy3lh'
p52
aS'gAAAAABbyBFihqsvsLuRqzae8bzyS3DE9M6K810gOmQ8ACF0P67oQ_FERdYwiBIPmXm_w2dqloDMAIHkUCYm-5r4yVL4LFJwNIaP1fAL0IxR3B3x65NOkqjYkealeZlh7rcyWuUpJPqnKSVG493KO9BUusR2cWs9LOBy5QCtOynDv-HwGwqPiYWJK72exJ_IqCv4TFipNSD3mdXb8TsqHeQ_qqKof767RsiAYpJWAl_O-cIIHJgqqJxU9UdXMqXIwBeT2t5icjZP'
p53
asg41
NsbsI2
g1
(g23
g3
Ntp54
Rp55
(dp56
g27
(dp57
I0
I0
sI1
I3
ssg29
I2
sg30
(dp58
I0
S'3JEl76-3W4nGC0zTTPiGLxDNJ1y2EtWWQ-Q8btsV7dw='
p59
sI1
S'G0TZY850kmWODEosMONqt_0OuyvbT6PnjieUpMdFRB8='
p60
ssg34
g5
sg35
(lp61
S'gAAAAABbyBFijQmwo6mLLYN4NH6jnR7AKfzeqkLVu68gNj4Q8Eoly1zpeufgplzqvTgMUb_bvi9yHchoGHUBRq38Gd0dR06vXqI7GoY3kc9KSKLODVKZ9Lx_Frgxp45R0JNQ0sFktdI6qUmPzxmvkoPpUU56cRAO_IjuhEn3mYOUXCYvtHgkOrYNuaT6CpWYJa97Q7IcJ7RCXaxAIcobEOEFIx279JElTo2nmlu2Ms07dmRSfhkvHzn_mllosPgGWWPoVlJtAsYT'
p62
aS'gAAAAABbyBFiuODeUWKTp138Z45AFAZEEMHwShzNQq6J02ACngbwOIq-dt0xwmmYD3odbwiqp-AzBprALFgQ_7f0gNPtOT3KgQpOXS8A4nM-WFWjWhkyBUEe2KDlQhV_Rkk_EgXLo86o6_dflFGySmdWDawzMCcTuyfmGacQZSneqoMXZJMa73tKek5Dn9MaoCHnRQLjrlqloJ1iBGkZtk8kn6QHIALpdNYvHBE6SzG-PgMxTFuW4UeFVp__PpLlUly70-ElHsjF'
p63
aS'gAAAAABbyBFi9G4gaF5uEF65bEhm1ryp96deK_uGG4L-ibQnsvQCWP3G9pV0LhUqf8X1YUgU0fSl6fMsMtjeknS3A76l76hqaIDescBg2GDUNPn4KxQjAhts8gybgFKaIXS7_Fn1iglmXgpDxDPWEJYVj_-fqf5d1wUnG3DyDRAXtTVBzU_0_gkRAWQJGfVhwi4YcH_K0Oa4POtGpesLqSnvJ927k4MlAnlnc9H6pf5AUtAmN-OX9E2tBUP8rp86Sawey4RTuZX3'
p64
aS'gAAAAABbyBFiw0viaGPAAB8OP3Ho2saC2tBs-UugJ86MIOjTJcAQRn6S6tWdE24mFajIUZUHaL2FmrskGoPmokaKwPuXprijyR3kGbs-clE3sSagg0qQIx6DGhQlQ_4VNcwU2igIPDlqV8vN73LnbjQZT3fGfeWFQmklbyham4Bx71U_MbLSEYb9iJQm3jIKA4CcM47jmJZh0j-MR2b4QPAnjLde7dmTheFW33tIX7r0Yvh4CwNmj4QFcMYu81l8suzXNqCl8H2c'
p65
asg41
NsbsI3
g1
(cgarbler
Gate
p66
g3
Ntp67
Rp68
(dp69
g27
(dp70
I0
I0
sI1
I1
ssg29
I3
sg30
(dp71
I0
S'P39cP8SrUy0wSRzdEuBa4Lpyg0GO-vOQ6tm3114vs7g='
p72
sI1
S'yRDwRJVZ3Ta1pxIM3XS1MV_Kko7lXPN5gdmILUyn-L0='
p73
ssg34
g5
sg35
(lp74
S'gAAAAABbyBFiw-au59zFuaINjofgLzfPJ23T2tv6rsSDgJJRVVLBDG1UORTaCXSMT7FqIyUMj3FqpYoWmwzNKgPzsKks_ylEJUjz6EBoeiff_B_GE3T6M8A2i4jZrRrcHrk7i5l0Tq0t6i5XK3oHnpW4x6CMprTU6jPEC2TDxIqNfqJ8mhYvKuc4uSjYwlfS3kbCOEUSyIn8gG4fpyoCi-gtMx0oSH4S2YFj39fUhyH458OCxgpqPqbLHGgxQaoTstpG8_wPx4NE'
p75
aS'gAAAAABbyBFiIVh66yQwuuwgSuR9Z9pgF-mDrGXNA9vUsF-Znqg6Syk_TtYeJ3FXwMgoOJuLvRqw7Q19mFnl2xyDBlMbqZrdO8XFueN5OxxhR3JaDBHtLGm1W6gKRNZmlAgblWXrpk92wWPV59jtEEGQqLGgHFCbC8Uj_erTdY50GrtA1D3du_2tkDZBdzOMYluyLmrsmb2Dvz7rTOOr_Uyb91oyw0jTk5MZ2eqggDIYYNT1pdtpOcxDqxHtoaM7KxsFRd40ud_Y'
p76
aS'gAAAAABbyBFi1QHjZvz7R8ML5Mu88PyheJvltS_732Ggz5FntEh60Yxe2uFNgf3XO_M6IGsXkdilrdiAwaezN16hdJvWz_5eoakI5cMl2IZQ1ensOVVaPMxjwFeTRctCIzgcG6FWqMTRorZrM1HdVgWS87zYCfSRgpXy2txqgsMF_eHFexs7E0dPQKnW_v0fecYB8wwOmP3oFgaHsS8fcn3HoaLLXYOB4NAMOfa8qCwt6VBwmSLrnwNZoiiTFGsZnYyVTv32s7-c'
p77
aS'gAAAAABbyBFi3ZXNpvULkgBwvsYEMlG03bfb16zYwW2UXRlFkJStDRxO7-OgtTY-yZhuodZIKuqsfQdpau8z-JflWk05tsdG4M2FT4FEuX-KOmcb_0kaCfmGXOwxv3bRajyaHqtJEQ3EF-PDjXKHDxAPQ3jNBc1CwozoDbYfE2HYnB6nhXb2kGNFAPtzMhyvVyr0KQuMsq3bQSg9LztOtfpigQtneL_Ba_PP-xHTum_aBQW3-82Nn0J3mSFzJrF6fmqe68ZxLt7u'
p78
asg41
NsbsI4
g1
(g66
g3
Ntp79
Rp80
(dp81
g27
(dp82
I0
I1
sI1
I2
ssg29
I4
sg30
(dp83
I0
S'QCkWzYXzEaJOpHh97V9_IyySDJ0FhhqAVW35xIkU6GI='
p84
sI1
S'HZNdCPPe2YRAA0ImyaJLwdErGvlO9_wCZOr5XuMV3-Y='
p85
ssg34
g5
sg35
(lp86
S'gAAAAABbyBFi91sNyodQ99FfpxZMm5znTj_-Mi61UgL6t-ocqKC3zWdENm89J5tcpeTvLoCraX0y_EmQmuArBddmTfkUjeHW11buq8syODjgab0u9jQNOvdjRjooauHpKiBDZzzZDO59F8wTdlj-VtrQ5CiE9XzfrV3lgXV1ohbVMCOzJpAI19UcuXrJsvkgv3f8pdk3LC4ceSHJc3mkGPM467sWtQgjpcZD2GmwCIZ7XAASxvMY1E__XPGVk2L6CjSJspGMi1hl'
p87
aS'gAAAAABbyBFipEQ0BUgF2XKU-0jSRoWcLbiNjnyd3bLUCZTkDD11PsvTIELVleNe20f_l9pGpVUJYlxiTnnjL5ZjRKGK9hjhE8H8hx0oaAA8AVNs3jPBNlFIdGe6rwcsPShuXLLfqM7Jhq5kP-BSq7fJq4knSVROlyDXJLBghqJJ8oLvY-ESsZ7OCeQagWeOOqvLpYJL7lVZRbVEoA6dI7BvhpQ-RVtJ5qTqN1Nycv53zxJZKVB-hhNJHjPofNP-kUxwdJzsLY7P'
p88
aS'gAAAAABbyBFiR1JfBzS3Uqq3lr_mIxW19jStEN73XqoWKT8caiEak2BRXLf73lWg3N_Y4t4HHtphHNyftKCGXAUMjIfXNoDIFgwU6TwlaSb-KybN932aTdEhXYzMgvvmRCTp5rJTgpr29qiU9Z5ImRysGpTgNvxKJEBxjKV8UXQUpFGIAxdLdswGH0dN9nSaNJs_knDzrfYUr2eXJHJQLZuJ9Itb5TIfuqFsXVaCBgMauqEjpxPpa1eNGzCT2RzDUA_97vbhex7d'
p89
aS'gAAAAABbyBFiy7pBqgWoF6in7EB9cT5CFcYwY8tAUvVN6MukwbQiL-yrNz6JwahUK2qkzVUvulNTFTdj5baHieY2TCPAaM7yloPIkjdVpJ3VtYvGNyMYJ30nvjAKhKGUl-YMISoXr0XSjpAvmF8ym4o7I8DAXEXHbxQAwEZ-06D5RyD4UJLvBuaLHDJdxDDVxmZXLfdKFQh59CsUFMDWZi4VN12qXd7YsP5lA0gxtt0Kae6bDaz_fM0w3l0oV1c_w9BolpMoViQA'
p90
asg41
NsbsI5
g1
(cgarbler
OutputGate
p91
g3
Ntp92
Rp93
(dp94
g27
(dp95
I0
I3
sI1
I4
ssg29
I5
sg30
(lp96
S'[0]'
p97
aS'[1]'
p98
asg34
g5
sg35
(lp99
S'gAAAAABbyBFi791a9Y7Vbj7AaC0U_vb9WiGDuh1BXqMesdkfRRFmcWDYFeJkP8LGCZ_qpU8DJnup1gdoCejWQ9WDHYs_UpffINRYUFmHrgw2WdyHL3ERAovLwZ4oWkSSxczmwaosMEWAV0S34W8HQHfj8N1Sx2BqQRyV5FxGpPaFdqHGK_C0p4QVw0SIp-xjtC0L3vFp5gKywNX4dfJ4ALeqzL7ax4U5_A=='
p100
aS'gAAAAABbyBFiJIV3USRGR5Sn6EDUM3DEijkD_TC7MgxBzu9I5B9QmwSAtfkc5fQrd7iG_gJoODJ5djkw157OkwVmwy5B5Vf961dA8OQ5mYYEcXfr_1WjY3JxEw4gz1HXf1Tu-IxFETDzlCwtgthaycop38oPfURIMY_7QcDTBtT1Gf5kpf7wgDSl8IjeE65hEVE-ApUNc3B5AFOSmWkjbWd5kR9sCAumoA=='
p101
aS'gAAAAABbyBFiMuE0HrMenGRSL10GbZqBwq3efcEJptoblebHCbdn7SaTLIjIt-7UHqfluPTMO2DkBCFr-0W2Un5YSGpqTvwUoOpj0GsDScZJyK1XO1cDWSHORVGgjXJtSqr6iNZvR0TnJNbqeu_eO0N1xwAw_I_4FjV-_9qP3MaSlwEAEpeFYjfGbk0uBkD6JmDUPsL3bR2Kv52QMqjQaa2zpXZ5DO9Fsg=='
p102
aS'gAAAAABbyBFiztTMvRez0SK6PcWc3jpYj4tzJrCZXLlz_4c3SjmijvP-GUrifZc1JZ2hul9q2C6dlruNIcEoHXJPu5qC1AUZATs27ZgW9g4Y3OYXe626HQSud6U4CkTFbJIYHezub5agSpKi8Ai5G7FAcorRp13hM95wVIKQ5bgXFEWe2VTjyRuMXNUT47VB6kTXhUwy419imsLlDg5W-2Lu6SqsnY6rjA=='
p103
asg41
NsbssS'num_inputs'
p104
I4
sS'output_gate_ids'
p105
(lp106
I5
asbag1
(g2
g3
Ntp107
Rp108
(dp109
g7
(lp110
(dp111
I0
S'moDT2uQXwjKMRO5s3FRdz1AyFhr26As5kLycSNjtyRE='
p112
sI1
S'-E1dM2htDLe__0FbqCPwBSn9H0_ad2cuEkLJKiFFzW0='
p113
sa(dp114
I0
S'3R4IQNv-zcKiqMVhT6or4ElKVtEPjmKiVAfgDj4ui-o='
p115
sI1
S'kYs5OSb8E2Kj9qi6V-z_x3_xw47CvHLO6fYaObT3h3s='
p116
sa(dp117
I0
S'_7-3MM_cjt69TDMUNJhMycIe0qJfw1xVOPSqC7S4sb0='
p118
sI1
S'XNTIA1NpBx4HAMN6hgC-AeTmBxl9TpSN9QEIZbCeQ5c='
p119
sa(dp120
I0
S'ZFYOidldQYR9uBgmmuJMa1qXiDoWCfVny3-acCjV5bM='
p121
sI1
S'ArY4Eac2qCW-9xUt7UAK7H8JOoxWnEUdpW4TGGr3zxo='
p122
sasg21
(dp123
I0
g1
(g23
g3
Ntp124
Rp125
(dp126
g27
(dp127
I0
I0
sI1
I1
ssg29
I0
sg30
(dp128
I0
S'hkZIg_-DEKQRRXPwiY4aCYTuc_ZISb81ZTUY8ChCSWw='
p129
sI1
S'_zBjp3FwqVtFUnYjjLZbKUCSAGkqgVJlW0jvLHLbgAA='
p130
ssg34
g108
sg35
(lp131
S'gAAAAABbyBFik8J4d7KLKukbF9BVISMQFOXmNBNT5YTQRVxzF5QkxublD3x-m9_QuZs854gcGWRKAuZIIU2rLYysYGSzOBPZeJJURi_Xl25nCDiyum4glaT0ZfQCQKUzLUt2a5yIf1hNI892vKamsU52qEPJXD0rMTp6t9nMAiRLNrogpGINpburKvAFt2qNZXDK88FA5lbzreF3SjMULR1hh-rILUbxEKxWa1dk_5lyUmGZh7yGYajIY6sAlbjxfCZHFOmEl3P1'
p132
aS'gAAAAABbyBFiAMXNBEN1Y6nLELDXAqH9rnkkDGQOTdWDV1ryXdtS3qIKyVW1U1WjvPRneOkYBqlyugDjMi76VdFeIlRILj5wZ_mTZB6js0duxe9qneuTb__d5B_5Ala-RDuCQqboXmnW2109EiWNZWcyQc8bsr0p3acZOLcVATK_Xzi0Pd3V3LEfSVZVyQJXUWohXsAtr2XW8IBlzRTUBHPJ0KBmfi-5YonjT3Jphg7o80IvyhYb7emwQWptmT-0Df45zHqcUKs4'
p133
aS'gAAAAABbyBFi01qTGWnrzRC5dxIE_0HYAvkukr4ZkHE8C131n8uyM95l7-TuA1RbHgYwpDyIwGt9yoQ4kr9QElPcK3aJcXSqM9-WjsUOHn2RPHvBn62w38WPA0N0eZh_rZCjzWj-iIybsuRilw3I7Jx-hihNAUyvugksVV7A90tVwg1u2B_XEZ7NkO8acGR9DGZg-DDgI2s5BOd-GjdsedT67oa9JJfMgzIPqra0Jpb_Bv7SEBC_JvJ4WBJdAzj1SnDLjL-yjgkT'
p134
aS'gAAAAABbyBFifnxzGWkuXS5igiKtPzjNQs_z52MpuUlUzk9DLnfe-xm1psLBKknQuHnnZDO6ugfc_z60sH_Q_nqaABI-IKWSzQFsoTA3oMyPhqtRaXS9MxnXtJBJEWU4fN7tVIxIRRt-wWVzVpS2wih9zxHjFH1dLQ4IyuYnIaIbQUzDP7TWtb7pOBM2hM_32lfk9OK5vlS1QEpupjzNdWWc-GoMz4roc6f4Z95qmNTxXln5aXClS1RPpGBFU5oyagalI4Gl9zUE'
p135
asg41
NsbsI1
g1
(g23
g3
Ntp136
Rp137
(dp138
g27
(dp139
I0
I2
sI1
I3
ssg29
I1
sg30
(dp140
I0
S'3jBTscdYYVj4HLgHNOIVWwESBRZ1dHkk8udDscjo0pg='
p141
sI1
S'PDay0iDMcjHO_0EeMtga2n1Y19rF69cMjoEkKyn16GE='
p142
ssg34
g108
sg35
(lp143
S'gAAAAABbyBFi4a-RONPpeC_CIDGA5pZKIfHH4FWhdZePOnXBSjhTPtPqG0_nXWh2XMHpr_fAMPvaKImWwqCv4aBUAuQrnK_3TJ5fclz2l003qkjJSiy-T8en12Zl7IyojPmZl2MUqvQUrQUrDlQV_eGzegc4e0f0lr0-rhiYtHaAHupUQxkaIISkO7RphY_x7G4VE0HaIkLXuXhfyr39KgfvVr3pdNnHy2r_G-JKiKrk5pDp4A-wIKA5Im0d91BLzH0VR7Z2gT9a'
p144
aS'gAAAAABbyBFiVpafR6icrA7F9W3Dp4ylI6vkcKYLCxX55_gfnU7z1E3-8_bxWSJ1B54gxHStLrtRPJ4p41t7m4BnyOBuAIrAkuMIuqeNyWeF14EZWo_XrrAvxDVZ1TbNLTDZm3QaX0_WsffCLgvqXWrG0UkttLVgYm8Iu41wX-n6ICnEfcrq1YNVIVYPZEqM2WntiHBtjm64mtCDnobGFSHB61v-hju3sKtj8kZH7GI-fUPjUVumBBWRBOpDQIrR3hc8K0a-4mIS'
p145
aS'gAAAAABbyBFiiTAev25kPK430sPD6H9UqJ7e-uqgqbdxbTjVTeBNT5UMCL3w3v1vzT-S5JXCXjGBWS8tgcqSE8R02RqPj4_DBccIEVCY7-RmGXIguv4IKoCq73lJM3RpIUISXF6zpBMjsHtg1R6BRGLPcMn_oyQfY7FzGEAvE3W_Je-r-WtK6mvyxVzkFChVH1L1aqWuJVwjY6df33JdAibzwzHY3i3TvblkeFkjuRTcdOwi6DFvZBGus1NW_u2vLoTJPFk22LxM'
p146
aS'gAAAAABbyBFi8xCEVz5E5odkqVzv9YGKiF7XSyjJhDWjBHWx_NRl0KayqOkbrjxwA4m9eRfT0Y-V1fqn3bY3RS_ASh02s9ai0WBcR4SyJM0kNpYTdBoGQUz5TwjMSZoziaWbTyWR8ugdg3JHNf_dTJ78IbWHART5bV36R8OLHCFWv4CdmwxQVkS7e1zAh3TvhLEn1u1ap3011_LxrqYdL0k74JQjGy73SBcnpMniGuy46Xf4aqpG28P8kPGlLdWVqp2fruTj_oRW'
p147
asg41
NsbsI2
g1
(g23
g3
Ntp148
Rp149
(dp150
g27
(dp151
I0
I0
sI1
I3
ssg29
I2
sg30
(dp152
I0
S'flCct-TuXjfMrp9kOa9vmtSqedjUfG30S3NYzaATJGI='
p153
sI1
S'uijrbJCZhKAXjBNWkZE1b_jOvBrnrxJAlXVYg52g9ms='
p154
ssg34
g108
sg35
(lp155
S'gAAAAABbyBFiAILiT88F5QPMqPmDn74cMJkG2USnsl-10ZRJ8opDAa9NI3A3rYf81c7LUtjDkNbGPNt0yAR_jsBFAq2IMF69qbBrJVcTjNHdH4-pd_Ta-_COSna2kPUVY16vdbqpo59GNGoeD0hRk5GIk7h-Iw7yUSBfm1eI-5TfTMqJ3EERO9RyzyFsPk3XkG6daU4Gp-CddFT2PxUIns6Av2ze8l73gIIX8OQ_9bKXsIN1dWgXOG8FCE9cYtTKZF_mLvfLbdME'
p156
aS'gAAAAABbyBFiD0M3dJo-ahKbVy4mOWcGO2YX6OQ8VkiM5XdtKPys7PiKIQutqx3VrZPQziuXKP7gpwm2eX1_HtGpHcb0JvPBVbsSIrEfV9K0lymSZwjOGVzCwbpLElofgpqfsOphD2ZSD8L39m_ZvxKHnQit7_lt772G74T1PK6T8yTjgkJtyMwIJFsiw4NzPeDnSxuIrFtRLy-10PaoE62tmIPxUU5_WoBpnxOwIsC65bfAc9ZVJhppDRpe5V45zwyTclNOGnrg'
p157
aS'gAAAAABbyBFiBFpyOot3rxWDJEx7kFdKSB611RxammzxkvUriQKrO3KeY3KZZUO10FfrpLDFt-jjN8gdMU7nrw14gT_TcJYKY0XM07tNgPfcydn1XRfDdgZSKIXGkOrd8NqQu0y_EMYd4ZxP5kRTQb0U6QEkNbUK0Gy7hWMrTfrH2f4Cc5nnqEF37yAkdyLa3tZYfVZVVo_gtvpf9OxYt1qSZqSItpAYz-FibN4vtAb_eXzaBDxH6ALPEIR2f74ZN3NpM_5mciWC'
p158
aS'gAAAAABbyBFivuLTd5doNvUA-vexUfoXtV-K8vLcgzmOzllz7ACnciksJz0ftyL0WfQHLfNO-aoWyE6fkskYl8Wk0Oskbicek9N1ftV2fotcqE1qEfu5R3F2oWXPhXyIM53p08koy4lOzpfIdYc-oCnWvKWKnzXPv5polHJ4TXqt1uYm4E3aD03XZYXytdzOIrXmpa-zdFMrZivZUDahrnH0KDqwnQkV_Jh7l3qO4FudVMIEFs9_jcc2P_iVVC3Dt_DvtiRI9suI'
p159
asg41
NsbsI3
g1
(g66
g3
Ntp160
Rp161
(dp162
g27
(dp163
I0
I0
sI1
I1
ssg29
I3
sg30
(dp164
I0
S'nCfN_7AIxoAQ9XQhILn8S9vIX2ZjIS40hFynZY7PLIc='
p165
sI1
S'ZwVCrzLcI9Rr-hYd1oB2D8WgO_wWv1FCcm-7QlbS9L8='
p166
ssg34
g108
sg35
(lp167
S'gAAAAABbyBFiPG5nMiwx6q8jSkA05FLYPLGt_gsPN1YjXhZV_MILB0vq_PP6iiwUu2v-bsxSan9-Vw23kFiJdDxvjZfJYCpBIqpsFJbsDbi3QuUkxiZtPHOLGfgsYbNohWvRr2Bl6ofmRs5xgP9pq_VsGiOd0Hku5qZrthW727cCm344licKKXgbpu0lketP9V78TCuPZOU45gNJQrhsjfWlvRtGQgR5V8p-1lfjN9UXZID6bACXVKjLhVHknyNkD_epcToSHFsM'
p168
aS'gAAAAABbyBFiQi8JDIBL8nYypZ8XCyumCEAh-2b42S77NgLwk8K4gEOYQ5I0g4TzVJf4k3taIIRPF4KvkCV5YoGBqbMCzELCNkCN35M_nHGdgg1FQO5-Y4uBCyIjhF_PP1CNYB2UfdOxgiE7AxELOomQl3OpnDm_CWGxnb0-MQ-MnXx2gCAxDoWJdjcdFtBJOBQlqCKMfK4-pJKVNl7Lx9SmyiV281MoUn4-ugc9DyjNZN_Yj6xE71dsL4ilpDImIE0FwuJRqsf_'
p169
aS'gAAAAABbyBFiyICyZl-blLmL_O1QiAvLhJST6Eim29pKrYd93DVTD0tua6NrdCIp4iT-inKW2rWJa0HwtIrMXlWZZarfyINDOlhrqOLZm4OI1eO65nZMXfR47fYcSk2xXbniIAuUJlAcx85oQgl5qFQcLAxxYOH0zJre_wLfBVPH5W3V-0ADHMMNMrK9OQYMqUpVycAJHM0y6S7ixhhxYF4MSyspPvi21c57XjoONMf3LPz3wj1lQxvACTk9XrzkQzZs-F2hKbpm'
p170
aS'gAAAAABbyBFin6X3KAWAs0YX6gRibKYIaDS0KheIw2n8cKstzbuT_8kmIXbXO6dzxFmhk208Ab09pV-R04QSGveuznZ8_ufzvsRzRR_ncX3mTWJEpxnPBLG7yAwW-u8w7fRTbpNLzDYeV4Se1EdAT7R6q3pZEup9VrS0elneQa99uR2hlMKzK5t2KN89qR6leI_tOrr10OA6WbLTAcaYlvDKoKKDFC4Dxw8-MN8xpN8GhGCmYrxuxjzufmFNjGwn_Vl17g_pYxeZ'
p171
asg41
NsbsI4
g1
(g66
g3
Ntp172
Rp173
(dp174
g27
(dp175
I0
I1
sI1
I2
ssg29
I4
sg30
(dp176
I0
S'0FiVk3_pb40nrlIpWHJsNsUM55c4_VRldEznegUXClA='
p177
sI1
S'etVmCAUx-LITKiEJErQBls_wmxG33Dflofg3AyTwMIY='
p178
ssg34
g108
sg35
(lp179
S'gAAAAABbyBFir9viLNPj1WSTJY4v9n8oC0HTxG1tcFUGl7pAn-_AVBfI3ocUrH9s3pdn3nQdVkayIXNFOpFCeddntoMRE2iwx4fGbridYL9dMckji02M67ddCA7p0s__aNVPe5jyp1uwNnl5G9KdPsJuQrclk0ViL26KyBBx-J88J6UcLX43w0kpByw3ZG4izkS9sM2vEFffBM0Nd2N2SbhTl0D3-DRqDAcDMuW5S-Bx_AFEEzyPMmoEuwmaiGpUYFggkayWxyXh'
p180
aS'gAAAAABbyBFiMHPcCe3k-dK30Ep5kyDGd3NA4Ln43rYiM6wlXpJjop8SVyx462J5lU4moemyTlMZGfZnmfZqW4UTaOD3hFMNwMTYLOuNAOVRFOCNnuAlB91mOuFSkFGTOAu_wXvJoji3l0O1JTUaWj0sXBPLwBapNyuoL_Kvh8aQOkRUQ4E2y5eTeWPlvU7mZGUs9Ltym1m1TWh4jrVU-Tk1mlNjuzmCzOVf_f_t7mkk4TUjCMylhiQZaQMVElS2PNou0FwqhGtz'
p181
aS'gAAAAABbyBFi1XITjgajKdlMnHfF0aLtwn4E0OOnpjq3jOaxN3agQRJN-BJexlalNTZDj8TBcbJOdWNJBsBQnvwyQomzcmEn-K_eHMFDtj5tH_rZiFJnzVPAQpKLDLxJNLbPsJ-KerYcElaCdRLRbXTv0xoYBZi9WLGdzJ1kDgCATPkBrcpwVfoLX85m5mAfqFcgjKLtSpttbxfT9B4bKqH-gf8ySupt-ri5y6zVn8SPVQITERGpbFb9TpBgae7NccEg3jOxV0sS'
p182
aS'gAAAAABbyBFinZbKtnuuWo0ypA2Tf3BfFvcCzopXKzQXB17XU4A930a11wk5_GRQ3I3jjV688C1kuPqdGRNXAPz9sz6T944--K2FXgpAdwc1ltFb9-hydttpRfViuekjuq4Lwxc8oAGPYFNWNRf-Sh5ZVVVdcZOAVGanQg32Lh7wooFRA04n1a3lgW_biquCtc8W4k1P3DZ-HaAPnqy0a91xvXeHDUQIO04sZvv9KTvYq1g68VtTwSSRWXn2h2scgQBzUZmnuFVT'
p183
asg41
NsbsI5
g1
(g91
g3
Ntp184
Rp185
(dp186
g27
(dp187
I0
I3
sI1
I4
ssg29
I5
sg30
(lp188
S'[0]'
p189
aS'[1]'
p190
asg34
g108
sg35
(lp191
S'gAAAAABbyBFiVOVEa4vOmNkmfqBrJkuDI1uvBXuZLd8w-9xL-Magb2Ex1Mcg8ihnxdyT2Iq_Hhz8-S75d5rpChOdFi-LbRACWec8Lrra0atiWTbhQmEI_od2u2ZRj_ZNfTClZ5lETFcRUNRnGve3ZVhCT_yGbb-Wk-TW3LfZpAbE8VXwoPxjq3Ie3f2faM42O38A5rjmqmtL7P4S0xLeGLpdpdkihYDhng=='
p192
aS'gAAAAABbyBFimQGdBnJH-MKG2r11PMRIZ7o8CIupQW5zmNXFd8W3dYkChqlBFyNnjSlW6IyiRrS3SKsDSLKX6ErKoqeiXu0--xkWuZLqks3OUvsuR7hpvWhomqvf7WKxK2vEfa_aBBPAnbtViGLYU3-bKR0Qk2P2_HZPFBR4hnvA-WXfhR4fg4IYh4iEj-lQ8Tc5ITXCs9YmjT6mtasOCiGLnf79K49PUg=='
p193
aS'gAAAAABbyBFipbd_kTNw3paeX6HgpwASqRMmSm6_7jj0sDgTE70JET9IVjCLn6RMShHHDOSC2c219fN_P2z8Mcx5wiQ3n5uCnEbjnrcftne-2ecwN9YpabABArZ-ylRgeLsMIFsl_NzcVlIlwrRZRO7kJ5KKwUa84yyVC-bJTHSkgAOuBVTH0ou6ZFTBfmEEl4dFgbX-D7YXZAD5HzzJsg1N5iH-bZtLBQ=='
p194
aS'gAAAAABbyBFiJjnybuAALpZiAyaqrq8Uwyfd7EPADJUCfVEA1PGOW3ZWT4pRANuWd3d7xP_hilkfpJllUS8NNI1FiuhDSuDxLz_FNILptZc5IObL8wycQ9ZdAbRxxp2xwZ2ELurqOlCmsLDrg2VHVe66q6bqTV7m6UU4m9pfc2mZbAeyAP4aWJjqkFLs1VqULClRHBnPlh2NZftCxq4YZmoP57OPeyHMiw=='
p195
asg41
Nsbssg104
I4
sg105
(lp196
I5
asbag1
(g2
g3
Ntp197
Rp198
(dp199
g7
(lp200
(dp201
I0
S'JHO_EQp3Zex0K_mF5F6odUF_MPt8ArJ8bSmWaEk9SlE='
p202
sI1
S'SbAx7LOA-EDoGJ8QnRNZo8mP-KC2M25LMgW295VfOsg='
p203
sa(dp204
I0
S'OT_74vY2CQ4g4GDpBlD1jDnAgZo0nxK6iP1M-_-As10='
p205
sI1
S'd5r8b8YmqVuKGiJkAhcbM6gt5hDe5TQfX_pmNVuD-G4='
p206
sa(dp207
I0
S'obF90XZ6hRedBpmYe3ClSH4eNo4TeyRXoi-3_rbf9bs='
p208
sI1
S'im1MscvKZc6qDkpE-l1rLvINrJi3-DEJH7CofKZ3-HI='
p209
sa(dp210
I0
S'RkUdLkNqOe3fwfIYBuBIcZi1WFa3qst7phbBQBMPah4='
p211
sI1
S'xBjesYPxkov01ZA3FIOSq5RprKwmXE73qOkFup7XVzw='
p212
sasg21
(dp213
I0
g1
(g23
g3
Ntp214
Rp215
(dp216
g27
(dp217
I0
I0
sI1
I1
ssg29
I0
sg30
(dp218
I0
S'VCJlo2RCQj5YCKZRVe3-eYKe5OKn0uEy1i1bM0Mmk-o='
p219
sI1
S'KsvrDqDbuIrt0e7cFRR5i4mLZ1iAY9a6Tl_aMFJfNn0='
p220
ssg34
g198
sg35
(lp221
S'gAAAAABbyBFiRQKPVrJqF13VpqsPmNEQAZlYalNXA-mdcTGzwtOCV9d-6N8xFgd1E4m_pF96AljMK0hg_Rsy03wsyfFMCUjqVsGZ1bzvXilZEAmNrczbaSOrN4ykn2tqj7tbnCTuq4wKax3Z96z4biHkmki3yt41KWEz5IEaygzbhNbm7luVJ3UnFjYNAgyo0Nn77IVbWop9Xr3UeotOPyBKY2Y_NJeR-nptA0R1JBqV6if8ihMuOaU8khCqVVOvE-9MxAKwi6ra'
p222
aS'gAAAAABbyBFiOYKmTSnev-0Bm3KSOX3fNWiXbIfMDBdnLVpeDLY3xc4SqbbEUZ2DLNdn9Mqg8iHDMnCCXTJFiofgzQYSJ9HvLFS17tSCNpUtKzL6IHdIJbTHkgzlSBRWSUh89IKC4nOmJZqmWL18jwewIJLaeG6_Rmx0sTAryEMb-35LOBFDlzvBEN-fjS9h-RKQIGgrvqTZSNRr4j-HMoRfsRmT-dMOugAgkGbb4FOgnCytPmQwOoVwznvpSTxejWIW6KaB_rvW'
p223
aS'gAAAAABbyBFiuykTSzBq1Py2FwB2g7nnTThQxGvG3lz1PYZUKbCGNaj2IVMDaq3I3bBiNB3eIa81pO7G5Usj6t0BSSwCjqrYBO0UK3I7Jw02Q7_xkqZudk0WzidwWtX1iyxo3aguEbRkMhKO3ERGVVgskxEHB2U5Sn6GmMgerSToqMD2KMQYvziTXISh40c893gQdhygLThOWd3VCtq3Jd4ZIyshDJSHHEqlOYI9iCX83bJuJtrRb_15tW0ARFiKxrAIGaYfKXrG'
p224
aS'gAAAAABbyBFiRYVdWcrFRDvUiJ6pn-m40bYVO0HFM44Cqf1Tne09Dp4Vo9qG5HOCRQGlUmnpjZbGasq06It2MvDBchtT37ybV1SDgVuEBt_EBQWCwnS4vm-HppLTV6XZA72o8zpLR6V8-k7spxwHGLz7iD-4QE1PVVbYSjEbtOc1Y7U2zxrU9ASSvD4U1X7lxSpuNIYo3-tO3nV5v8LEi-9gg1o0KNYybYk_MFkbKJud_hVX2aN6ZkQHc00ZVKThmASAws_qheav'
p225
asg41
NsbsI1
g1
(g23
g3
Ntp226
Rp227
(dp228
g27
(dp229
I0
I2
sI1
I3
ssg29
I1
sg30
(dp230
I0
S'sNrl_-QIfxAmzrwQ7X2U_uLsKev-tCa8vvW7bU1dRJQ='
p231
sI1
S'RHmCBjtOgd9WBWyJOcnouuITB_cmYSJH-1cPlrhs9j4='
p232
ssg34
g198
sg35
(lp233
S'gAAAAABbyBFiks8GYtNHdlZLv87hHGpHKQGFr8yKnlCqDyRqJDGcs8GbadKFR4UO5K0Ro0MptmR4PNaaRnM8R5GjRyDNe8F9tbrc7b4dLH2fHhNeujdjNZDNEFoJx8ohFfweeMz5wzHKU8D6EHIaNvUEn1SY6IhgX-4rpk1tsTUIZ_aUOGDk0ECAig91vMXHojt2MWoZdo65d4fhmXBd1p-cHvq3mpZqALcGrI4XNqHYusie8A_pyazCNpQJv7DOtmfw6Fg6ytWm'
p234
aS'gAAAAABbyBFiQrzYiK9f8SyWrs2_x6-CoL821pcZ9w7LfkHdTWdyJJ7eVFeBj-FFrhcUvskb83y8we3XK9mgvoErVZbgGNVHrJnvxHdApeHrE8sSuhb6zNuGHDTYdWaf2SS2mDyHJvLYCvUiG-qmUoIUFXIlE6vwlmFMiU_BtmwZMQ79MQugviFBHDgJkS4KqOYwJuXoxB0u0BlKnuIM_KkV_Apeeta7zbwCO9EzJsCFPgmRln9vHkABYNZ1VXuXMi3ZJ5548F1R'
p235
aS'gAAAAABbyBFiUmC8WYevsqEHV6Vq7z1bMCKxZkuBV71M-nIocvPSG1zdU5n-2vtgIEq9sgzAfZl6n7ROBwZl2L9J2MX0iv8Pg8YUD7uD9CBJNmda29g2F3uBbJ6UddWv-cpfu1gJxuUW74PiyKDPu1iabfjHQzNiMk5VefBpbK-gXKwq-S0hL9IYstiYulf7kmUfnWJda9OmMK-bKPFTduCskN_8yjSgwbtOxqUE2hAEXpisYMPqmLlaQlAHnc5u2ZRCl0cBJPfG'
p236
aS'gAAAAABbyBFibFDF9aAWOgTuI1Q3m7z9vRK-KY7TailPZis-ELqW4fRhOXQrbBjTUCUIxDYGn3WepOJbSFit4mgB1CjsGeksu-_VqihfAKEdNpP7Bts1LIsR1fAI_xEwGyGhPe-TJLD1E9KEM7-7IgZMP6B04s1Ytzkb8oP9hE-_lM3Zv6sJe-JO7kyZoR42jcpAgoiKWAt-z65Z-qpNtNuJhUhNPvC6K_peVcKj9Ma5MWkRv9Be_vXcusxIgricRWmlwgaCKkyO'
p237
asg41
NsbsI2
g1
(g23
g3
Ntp238
Rp239
(dp240
g27
(dp241
I0
I0
sI1
I3
ssg29
I2
sg30
(dp242
I0
S'5IJcO4wCSYycWFammZpY5lFDiDN4MPVv_Bng94f3h1M='
p243
sI1
S't_zimcKMO-OD4rLuJxyacEtvnN8h2JUJyAum2twrajA='
p244
ssg34
g198
sg35
(lp245
S'gAAAAABbyBFi8PAGXbdkfSTkJBsLyS6rB0cDf1cDXNN46LJnxPZTbsz0GQBzCyl0JdFkdRTW0JTsRTbWTiO5HvV6E2ZAof9kNcXMj1tWk1aacKuAtLhTOdTL-P33az77SgXlXo2aghsc55_Fr_TCaMZuL_9yZImWxX_qMRwnHj2y2PsgZQEsMujCCqUCyJfeCvZ31yjKq6I_-Jn_ai-5l4oG32iYibZ2skJP1RTjSNgqRlF0htRCr-1T4I8MIlBWrpK2Vd3J439v'
p246
aS'gAAAAABbyBFiJqbWqLmvcrNgo8sMv9kSMuA-g1v1Wbhtel9XPuWU_xRrupJV8ELjIC1W4LQLkWOTNQWHGhw7TJKr-jVfI0weuLZEsiul8xAzra9M-m6V5YAolJpQZSWxgyg1863cL5q2oL0CSz4EB0IIojb8SNqkH8TmLeTiQuigNQetAjzvZhG7-IVBDNOWgDTGeSOYP5otucBf8iLjjvEP-nPZfFpIzqi3vsZLgGFraFUK7IdKkQ_VoF9fVOu1j-UdW3kEgKaw'
p247
aS'gAAAAABbyBFi06M_G-xXTZRF094Aka78p2JoAjiX2JaZC-ooS8fnWTgLC4wujEsW57qT6s27xmKWLCnGCkY4LnG-BNIF1sp4bOSXndPy4tn6QI0f4aGo19gbyJwysgGvd5Z_2Z-Id8kE__hWFeXFdvl5z2NrVYMPSYsauoeD3MiOtPhtYgf-B5d8tTCnBVgbxkcZFWnpiflJHA6b9n_Jk0nFnPdJb5CKW7TOwRkdfeAkDVw-bYT9uqmeNUHSbWubvPJTY4GdOGbH'
p248
aS'gAAAAABbyBFilGyQv9vIDi2IQE_nTepPndj2QfXTxjqE37tXgIAI0nk5-bgjnqpTyruvGTrIIj7N8vGkGfhTx0v7S6ywU7UofA-Q5ng_A7fcuUlmqZxwM6ZAslwhhZjvER85s-v02_tKzzRORSofHLSVzK5MwGRkJv-TooYj3sua-WVaqnsYO7ogCBkD13s3J9NtUV-GrZxUIxck2V1gJWtHggvpehRfSPpNCtoV5PwrBptW8GySkBWaWNd8SHxmvhKoZp0uVzjb'
p249
asg41
NsbsI3
g1
(g66
g3
Ntp250
Rp251
(dp252
g27
(dp253
I0
I0
sI1
I1
ssg29
I3
sg30
(dp254
I0
S'bYhh____SkL35QRhBfgmBS2NtqgQJf_9KPvmDTxgJDA='
p255
sI1
S'7J1XLnIVykrKq4WcMspw5U00CxoCeN0DFqRXLU6uS6s='
p256
ssg34
g198
sg35
(lp257
S'gAAAAABbyBFiX51DIlY0aeYTxMBlakGdFH67tq40yMjXY9f1-4NpHFEL7qCMA9z7jzUXLrERhEw-rWDcn5juyAWV-e2f_YVzmOz9p8uEAGXs0QHHoZG_KIC3OIj1UA1ShfidVfg2V1KTv2uHEPa0bF0e8tKeulQZHI8b8nSrlcQEJwfE0S1Uonk7hGbvS4pWKIpz52yF84l6RY5Z6arZtFtUDelSt3im2H8waCLhfItv1rYL4WPI2xrFRsrPqZM1g5hC1GGvy2qI'
p258
aS'gAAAAABbyBFil5lyIbWi0UAwfPmtkPbjBj4GWQFsgxqhOEYMx-AYNbs0EC3i7xmGyqXKvZHGtj9cJHsK8sdR6qD3duUeneZKh2CqCWVDbZkBBwNII0CNUvsdaajJbD_KKYjNFW_2-WT-T6oPs1qpSWsjpV33ZVqiAtI2YcqHhM-6UsW1zIcXzV16zge3HzlixjHNW5bgyE9vP6Dp2SLHG9SpuEsdJof94fhfyBBC77jXiM5YBM6tvFxSFlSlH-ca4Cdbvoj7E1_3'
p259
aS'gAAAAABbyBFiAGa6gtXPeh1x_e19YUwLWC3HXR3FdEgt8ZbGdPx5eEr5nULnDOJGLN4Yr6oux0obiYdbcFxPBv7JJYnH8z-8LpXcQQsbShEwtq7Jj3jS7c_Hyj9GiQlsXILmNAdv6_u4iuIz3eIBAceHtDxcmTBWBvPHu1Hg5BVCvGHex84bzPQS9gnVS-hDYaDuUExxoKPM3oPST81SSxk-W3_Cwk_CN-6CvbW5FV39EemUpTT2w_aYhJ_RLeiOAskHVF3LTHUc'
p260
aS'gAAAAABbyBFiZeJybWBNSJJFplR6odERThzmPT02e5_IW31gISLFaD3yXNyY1OZWzxpZq8dJhPGXbKn9VQJ5HAspsVHaI2bOc-no6BAwDp0CCMsslRc5u1I5G_yg3Y1PQZic6-cQXX093eQmWi9eFBfDPYg6NM_931GlyAbYQpdLkE2dgkZKt4p_BkDQXcfaUWpUIiOJ9KO_7lKM_qNvBbGlSbH_u-Exxg74jvTgYAPaNxh3o1sfRC43YOilvuXoHPrLTPt8bN_o'
p261
asg41
NsbsI4
g1
(g66
g3
Ntp262
Rp263
(dp264
g27
(dp265
I0
I1
sI1
I2
ssg29
I4
sg30
(dp266
I0
S'iwo5EoliENmnwAo_wIYyMQ_A7uINeAWj3y7NpPwjxNk='
p267
sI1
S'EC1A6f0J_8_ckrFHbMqe071g9lME1sbAJqCHH-T6Ico='
p268
ssg34
g198
sg35
(lp269
S'gAAAAABbyBFiqAi6PEPL5XbefCOAkhn3EnBrouxrmSyAmIsuKWE1zWm0HXwIF2KHR9FrH1Gmv1gQ0jXizZtxIwNHfc9_BzJV_wj2av284oYfkjcFf1tho-hEZjwQp0nzYRo3ZvUMRv5nJZr68N1vdsbPquuUJoZw273MsxFTZg35DMLOTAfKChmTqabTrXCej1_LbAAvxGkODGHQ5qR3kPp_jHtS7DXx3RgigT9rWZ2Qyx5VOz2LnfO_F4UCM5cdICgko9vcje9T'
p270
aS'gAAAAABbyBFi8xS_Pbpr7ODqYnO2EDsmBhhBDwzUxaPe0lIPidZ5ko1E_jL5NiX2yX1vpNCbfeFDFr-uObYgTkwXbzXVQlA413md6QmvWaL4LrImL1FbIj0eqNuD0Eh5YCaKPFxXRkLBC5AZYCERn0ZDQ-tFWQNRQXlc-MKgvUJ1z4oqGjSRaV9aTM-6caQri8oJCU0CZCC3husglRpW1YcU2FGhMF-7kTI31EqljorZ6eR9grviBEYE3v0qfsUNvryRuLA4BAp4'
p271
aS'gAAAAABbyBFiX1w-oZU9evTD7YEMz0Mi4ppyO1My0O2ldu9OyHpihfwyruOrx0ZQCTpc73MuV8DcvwVC744oH0K5CLT2MkY7hcrZVUCNwHjve0Tr4JiwnB90wvBbX2veyaShxWrUqYJY66Uut5fq1oG__P4RB5s8jpaM96ZH_OQM4Rygpbz3fUeQAkKtaJY1ZqI8H6TKD84M9X2nrf0EfYzte5ax6ZKt8Rczw5aZ25t9-_RkMxQJtTxRIg5qoZD92dR-PAgVemNX'
p272
aS'gAAAAABbyBFiGdS1bGmkOxHtl4nTA9NFtWfncj0ZWVgLIIwoPdEUSNnx-ybdBRBnidX7BcjonYfCuvB-jvBQeY6Kkh5z1l3CsM6GF1ksaD1xAGn2tzKg--edQJfxoNvqR4Zrbit7-1C6BFy7eUjdGOUZ57AU-HhTKdEvFShiqLJkRQBNqfJcBzEawXF33cVOVQUcOz0ihPAOrZFxnKq9Kb7p9fD36Xvj5mVOlGqCjM98rf87dmw_qT6txFeiax7EnVM3omABFfb4'
p273
asg41
NsbsI5
g1
(g91
g3
Ntp274
Rp275
(dp276
g27
(dp277
I0
I3
sI1
I4
ssg29
I5
sg30
(lp278
S'[0]'
p279
aS'[1]'
p280
asg34
g198
sg35
(lp281
S'gAAAAABbyBFiu5R4suUUKquBhkWLW2r2NjG9IaO6PRgDmT7ABCOF9tHjz_wxY1uHHhc0DtWSb1o9S4bRNNkMn_pK1nj4bzoseRw5VCDX-4iXeRNlSLInI0HqALgwrFeOtHWZdyxlglqvm0OJWl8zkJjMFo8_vIkhVqjH3r4820xqzUHwmoZBNurSJws2XZUaG3ioAMERcTKvtW_Wn7zgyTklubJ0PqUv2g=='
p282
aS'gAAAAABbyBFiyHzc92T-StcX95UW_aZLt0J_wuG41slLnY-U79snSllNJvVYFrM6tn1D-8fsCILnd-39ctiMVuwNCjYE4GMbyawq9ufQSNyWVlvttB5kCvvYffUcelA-lFl3uixJb7Awh8o4cM9o3s32h6ecgFOhRArr4XNqv-vDBY4fKFjFJLxPNQvKeC08qEdWuTtc-KyZ3AD7ujtnbvGvRQTnkQI8zw=='
p283
aS'gAAAAABbyBFics1z-OlZA8ecf3M4GKpRzlvbyBPay9Q8CCdqejqWWtmPq4o5qdBFKjL1eG-ypVBBkANZls91_GP9gjhrOx-Npw4yerqc3w7BNVc7wDAZA4fhDDAFQvdPEdK7Bpy4fLKkzgFhN2KQMqsA0ZWHGpbqaZLJtw11VIGV1HJIk39OSu9hyBWHw_ig8QipK38ttr4nEOcjGF4JBlxg20mEU0xUbA=='
p284
aS'gAAAAABbyBFiecIWycamBj6v2gu5FD-a6XFp5fXfPTARM9MLUg_mXzeVkRFaTFO5_yIcBLCbh1WSRRwbGI71FmuOsj9-sXhcHMi4F7tg-lAWCC-N1R1lzd5c0kuLGyIB1umcSMRSjoapwPkbwFaQ83ACVcfyQ-qpMA8biYyfHvUae6uFo-uWp-ZofENADXmTeCXq0ZR8UAK9nPBWa2Ksrn6vi8qCagGHQA=='
p285
asg41
Nsbssg104
I4
sg105
(lp286
I5
asbag1
(g2
g3
Ntp287
Rp288
(dp289
g7
(lp290
(dp291
I0
S'I6FVeG4qugN9rXKL6PqzeGR3D7BeBE0v5JnKY2-jilA='
p292
sI1
S'n043yITl-3qawNOtzhGsNHFqyIcy4iZzwIs5JHfaSx4='
p293
sa(dp294
I0
S'BRz227qkwTXr5hsWSwl-DADiweRDNtHPWlCtuNiVeB8='
p295
sI1
S'nuKTFFelqkYT70d_iBumG7PePXXJM6ZtpNvVmnJRP8o='
p296
sa(dp297
I0
S'FMPWTZj5FTB8c2NU302Bsk47vyqOpfzHaom7IZreNNw='
p298
sI1
S'cvtayY5Unl_bskjil7F6_poIEb-kH4li5ADfz6_TUOw='
p299
sa(dp300
I0
S'nIN4sgWTJ_ySz9l12-i-jrlIsBgLO__5SmcAJngiL9I='
p301
sI1
S'sA8kqj3yydF7K08lqZlKCt9jEg9EWUtLw1R1taIpnAk='
p302
sasg21
(dp303
I0
g1
(g23
g3
Ntp304
Rp305
(dp306
g27
(dp307
I0
I0
sI1
I1
ssg29
I0
sg30
(dp308
I0
S'7bGK9BwB8YzJPCDKQmj09s6YGaVvwL0uWBpILD8rf0U='
p309
sI1
S'fT-dt7eDgbbiCqPvE-UGkCnWGgULNJEAIJ-LFUpOTTE='
p310
ssg34
g288
sg35
(lp311
S'gAAAAABbyBFi2twaGlZRqbiyovZNzqlD9V2jcgjHt4IvfiYy9H5hZf4MgKQ19XtvzVzAajNNWRx-o2GfzJ3hY-SsT8oEZrDHqCxzCl87DmPDh5iWEd7GRZRu1sj3JQFsO3Uir3bi98Rc6f0sebVDrLHW8NE0xO2x26IAfm8UbXJ-Tl2mSkIVwSXM1bQf2NLIQP2fgEMkFQItwgZvNoS30KLWCOA9iRns1jIUe2s9eb7nP9gQjzis80yrAPPhk4R_DewLJ8hJC4Cs'
p312
aS'gAAAAABbyBFiLPhRoRnah8TIK_gi8JFvf-fpR8PDOgZ4n4rLDKLSOBzB11B2fwL5LV6R1O1CIcCnZzFt8Rf3UsUoIpav3Lu6pi4JrPM_JsG5qNrTnkki1aTGIpUs73Em_JJbmF8uwKM5LGyk2juTaAkBO1J32fchewGnkNuOyCDMHGhXl53KmOHhCU-T_T63w6JnfJ2Rwq7TaE16zcoCr_lU3OtsDvdev3toSH5C-3pCuQemyMO1eM1l7oM7EahF59k3JJbzeifv'
p313
aS'gAAAAABbyBFij3sA_FGZXeQ_BBVP7OKdjU9gMvfeGSbhFqw5sZj5-nWfvKaBWxtxun4CVHOSjZHdjov8aCQlEJCiPRDZmJVELtFcaPUyN0nLkRhSuGVpTEFEyeHV0aRg7t0fgUFTkm_jSdukYPETm0AsYCBfmL1ErCSxbMaCOcJX_WPGWbI28hhulm5SN-YufVmpqSTTOpyouLfzAFDqWpYQS6lBGA-SOrJRXxxtmJreVivPbaHXXMMsXaNUdjPwPrDwcXQbtLcn'
p314
aS'gAAAAABbyBFiptySgU7uYfkCWaqCKaNX4YeXbJ_jBDrv_PGOYnt4CnRbnjqx-kmG04FHYibZXzcnHfyp-PgYQT8FLH3jj32oPFG5O6TAbSqEv5KKjhM6Dpwqqsi9sX12FaoF3Q6z2JQT9-2ImZlAGyG4YH1UKcDJpKOuDmPvMPWr6pApxOgeDslzlTVOzl-DlW5aD5iaXgH75lqm_zhDXpvfUNYVVyUBq4dZzfdyNKTeSLozKIR92JYU89eJiUhhw6GRyFa2j0bv'
p315
asg41
NsbsI1
g1
(g23
g3
Ntp316
Rp317
(dp318
g27
(dp319
I0
I2
sI1
I3
ssg29
I1
sg30
(dp320
I0
S'BiJaoGd7h5i8Z9lRqY3tgFUhqaDVpJEOQEyatGCuFxM='
p321
sI1
S'upfUvGST-D1xBSkT5VPlBFsN5iyON7xZBSKLXkmFHZU='
p322
ssg34
g288
sg35
(lp323
S'gAAAAABbyBFiJdhHKb8yp9jCd93J1u5r7zh-ol4zugWV1TVCHuw15aIo6qO4eOZLZakI48Qe_m-QfrT3MMxzMySOeUtrUkSHgRYBCnhUX3sd93YUROoi1sYA7cjJcoMrhcU0x79QLS08NOK_3i3MJXCttOP7LKv-E4bRQW1--RTyhzCCHu6ajkhsu-JHbnJr2-7t6socsj0QEXm2WLIE0pECix8DUjwE_pOVkdDrkjPCkAZxO2LBgaGLO-F3Db5tsp4Ee-TLDVqb'
p324
aS'gAAAAABbyBFi7CN8azk0IRxKwk7bnGGd88IN_5XKDcPJ5x_trF0deY2UaIzS5h-4X0XU_uqBGfqg35eg-dEhdmZSomDUhIT32ydxTmzEpttZhtUb-G2h4eHvICDDEraA4VkSF0azSLbAf8y5WUoO3if0ZC0gZ9oW2E_d42Rdm5bCS07Vf3m9ZW5vuZtAZcq8DeN1UvJQDzr3F7ATL2wwdlFQ1hYNk4TGc-MGIefy5Ju8YOEXD8cZ2VBsboQf1uyORFV0UvHyW1hA'
p325
aS'gAAAAABbyBFiYQ6h3d0Clf3BJDrzTf6WYmetAWc4qIHmF8N5l5V_WwB0AzQQXAWs3-acC0PPq9zJGG32zbuhMVqOPbznkBVDm8p3n1KD8-bLDbQfjfzScuRSSdRufgv5BHsZp_VIQ1QsLOWLDMlyU7jgOWpDLUYkQQYUPpDaIX1rcyXzgF-DrSJaShAhFKhHtEqfRSHPwYlX-uvH1Sm-SLRMGDvJikIr-BVYOLsRnM4NkSyBEvzfRnKWt8ywe7YB1oKny3ha0XDD'
p326
aS'gAAAAABbyBFieAxmRkWPLSYtLkwLhgMhdK9QgKP_JUPLh-UZ3iLpyhCWB8Fw-b0ldpmy5KVINGIZ21eQMpCs_Zi73Q30DCbffm3j_ia3OhfhqbILnCBgprcE0rtBqG4mRH9xAE0a9h0dS9WUstXX7hTxI2uGLG4Cs1rSg-igMsOqMOfG6xp2N4r9wZ9vp-1YwFJBejNstYy9Z3jiVnW47IGiwEGZU-RzByQkkyE7wOMaXCmaUrh0HDvHxP6qYRlH1FTqN_kpuniM'
p327
asg41
NsbsI2
g1
(g23
g3
Ntp328
Rp329
(dp330
g27
(dp331
I0
I0
sI1
I3
ssg29
I2
sg30
(dp332
I0
S'XEvlUeevt4y5JpgHPyhA1WvbVuXxbRstN-GROMeF_H0='
p333
sI1
S'cbjtysiMBRa4tyJWlTGwjZoJCVUSdf2GTwaY_33BUCU='
p334
ssg34
g288
sg35
(lp335
S'gAAAAABbyBFi3Pj9fq_2iUeIFoAyO1Avqf9yIuAF__5LxjBrx4XMrthRuM85dYE7JCmJ1fB5yz83NQWjIHYkoySpZchSNx26VWmhnsTX_gOoq5ZuPEFJAirYVOMukkumfNla07ihzOI8cxQckOe5VqWa0E_lqxn4qeNYf8m6LLghB66sYKt8AX25shRt4xXmDAEW1IzdIe9CjdlNUwSq9xVyqumQBwhyV9LZJRlOiSzxwswJUizMVOEZwz33tONEN6D1dDXTdJKZ'
p336
aS'gAAAAABbyBFinP0meGrDeWQ0zVzysoWtFaaDuhlnF2pXr_3nN5j0_fOgtdUhgQmNJemD08AIiNR0Vz4zTQuvNuf6C5H9cMjO1Tc9Pt-tVh5L6j1QRkVAnVVTGCtCbRCqvWxxS-rSlrLRRh4cV2Q-4Qrppovd70fJ78bUgMHHFg--YeYc9d2TNjD-4a5hIFexpSZjKxi8aBTLPpsOgKxEQnp4Vzqqu0z6JjYwBQuWLqbl71OwBv132PzGDglxmBU6Mp_qfjollaVk'
p337
aS'gAAAAABbyBFibXOCpJBmS5KKbjEwC3fKONsMuV6jISRfSWkOruJra0BisF5JRv2r3JtG5GG0l3iPBNnXYDdcrhy7_7STcIpqza-rhHrJaj16hDEfg4hBqVHTAOo6VeEUkOWnrJWr_tLp_GFzUz-gN-rFSEPrFd0J_jygmWr9ohxI-Af5DmkS0nUFiou9t4DrKmzjUmRV9ynY_AHXVhNq9L6Sv_zxu4osbQgRDd_a41NH-WP5RdK2qNw8RhklQOfNoWXurOTNB01Q'
p338
aS'gAAAAABbyBFiNSwzZYSMAURHw6PB4zj8WslvOPcUSRUqcvxXFgH-7mDEIs5WhfFIo1BurhUgaOltLXcWn2Yt5sR21ys-Ji0gBVxp7n5d88m88vW7GxJ78pf6G_aXZeKnpE9zI_M-0AQ4A31WHh8jLZGWGR8FLJ-7k7vWv5ai7v0L2tkj_ymd4IlxnsnZX7Jxfu5k8skUtkrFFlGzEyfAkpnoNbBIFeTIzmUf9aOhkhhpdk08b8fN2cB-W9wDvtHYYb2ylbl1UuRF'
p339
asg41
NsbsI3
g1
(g66
g3
Ntp340
Rp341
(dp342
g27
(dp343
I0
I0
sI1
I1
ssg29
I3
sg30
(dp344
I0
S'ritFP1GrRlqSK3Ji2vWdnrkwqQcbPeo78S5Jes4XXB8='
p345
sI1
S'8PnQB7HRR10VZrSlFI5TwlIZQZKfYStGJwwLRFZyzI4='
p346
ssg34
g288
sg35
(lp347
S'gAAAAABbyBFiE-DhcFvFQSPptoUNG9QWZrgQgkIwKJ7YVr8_qFN9ZhSbjop8y5d1hgrqEIRavamo0IfyGzT5dHGD0BwyMtoc7HARODi6dbDAJAfzqo58ssWK7DxnXd7uGywwWhCxkaa8GwcDvlf-hCEI0ex-_Fy-E2rW6-SAQOqNJqn641HJZtXaGevLgmrZKyiBfvST0IwPLzkzmvaaNs8H3A4O2X8KlX4oABK7aI_bjnkD2Djo7iyrJjKsfPdDQPAkZIWS2fi4'
p348
aS'gAAAAABbyBFiXtQZFbSGaPdtmQG2HVq2Hybs8_pId2gumqrn_yirtjgEVyZckHFJCtkIFB8DUrLKaoiRWghmdKNGNfxEdap2chNJbAQw91Reyk-FjyUYvQLnhd9Apy-DJf5bzYGCQoRq0uOKC96eEiZdRWpEPCptQI5gsrvPjpHqMs-kDZSlWIB181XSq9fz1SPNeBjyL4CzgYJZsdVTsmkRCkpbQAPCftmP7fe1VsbCftVvNcX84RoQErcRYAutFDbJK3I6dgYs'
p349
aS'gAAAAABbyBFiHD8Dui9o_TGQhiTf006v5pOebug6uOsBP9PjLwJGuWL75vit6lbVbJLmBSfuicthbaWpiMcMCTvKWEv8jMLlglG0T0wK7oQCrLwXo2-JrKZ2rEvzxARdEgaBDYDwESwz6_aUHGedEm24AdXirBciDFp1hi2Y8S9tsQK4PgfogDLF9IAk4k4SNAgC-_otScW1u4vfcpu9joTVrw2MS-8c0yY9Q25h_Ud9Ov6MP4XcNILg-_LDnru5voCaWSV2ePnA'
p350
aS'gAAAAABbyBFikirWZZitoMeFhe9WqaQtf7i1elQayR8onVBCHc1bBcf6O9SPySwphPJ2kj_9oEaCfXspsIpsncE1jqvim-ebGwlVt2qf7SWSJWLn-IJ3NqvL69r62m276_BrolZGPP-ElSU4YOrETz2aYczNu2cHRIUMSUARhB5DFKikHfChBU5gCw485z0Z18YHHWLmtRqq-J3LgjIMEfVrqSDWsUj3qbGtTpXA5HlWw2Q-1It6ZYThiJr_559maPCDQ84Q69K3'
p351
asg41
NsbsI4
g1
(g66
g3
Ntp352
Rp353
(dp354
g27
(dp355
I0
I1
sI1
I2
ssg29
I4
sg30
(dp356
I0
S'CHeJH4i9Q0DwOaH5j4AzTuew8-_x8zEPLCYEVSHfIhI='
p357
sI1
S'm2bqTvBjLgExsx1Uodazk47aZeitNq-jYVW8IDTIvtE='
p358
ssg34
g288
sg35
(lp359
S'gAAAAABbyBFiH_9dM6H_Dtwf6znjL4mph7Yfc8ol3_vIltSER7uuf1VQS6ReN0mvCa61VuFNYsxiJMKG1wte_R5GcodVPRcyjJyXYNpegpTD3CxGOfFR4lPiBcOK50kv1BASnRoVWV2ABs8eaTU3EaOCMW2yXW8aPgpDZkKn1bN2dR2LB4jvlBYHqjTRe5Fc-EmKTQTKbvwnX0L4d-obl0UrzlgBHllMivMinnyEr7Lc74o0xjEdIwWXGBhECx4vNb-GwBE4d1nN'
p360
aS'gAAAAABbyBFiQIeUXyU6Qu9AiyOa7GfyxiaQ-O5mmZDYOB-3N0SxCEFhXQzVTtLnTADeh7g29A4iWJ1vM8OezggZXrzzgLhtuHzsMXcn6r-kLVI4EtGSK8_QKEgBK7Cajq6e-sAQtS19uMGhSCqnw6gtg_NkAfjNLzgO1HmJRF3QvX-cf8QFqTZCLwrKxUGVqCzJPOGpLBHkIVvBoh3SqWjZ1cGT7WCkUrWvRWcNV7RB00TuBe4yI0BCa6RzClZSh0hgNS4L6Gsg'
p361
aS'gAAAAABbyBFiZprDapFuas1deROX6MXQuvgOTYMfyxqOXan7veTuOC6zKb6D8yVQXoL4lwe2lQJFXTt6WbV0sEh_p1KImxlLiKcrgAX0p7Whux9vxFZOQ_PP-2nGJ89tqx0yXhrmIGjxLRMs25Y0a6SecEcnXC5R6BWd3ihnO0oq5WOyhg9gjebPthNKVpqHP5vxqtP3mFE4717674hQ2aLTVGz4fEm24z-xYX8JAPpPWfqAQr2ED03QY5AfYNWZM5AbuwB5IhHn'
p362
aS'gAAAAABbyBFi1TIaGkRe_EJmMbEp3E94EQap_snW04tuhgShRmhNRVOuf_pkzx3vBoPmW4ozX4ySKnJQYV1yrmwHEvO2AA4sbU1X6G4zV2gs3TJ_X8eCaY826VqNQ97JcEoXBwqK_kU79QiSQcM1V1SdcsT6mW9Mdob9kAvsymefWnRr1vCOLUeITE9AT_SepdrTJtJ2DEWM15yDJdwIPK3dbEjRW_lZ7J1TvktElxupmzpFA4li8DdrZAf8wzYLmEyK1JdniR84'
p363
asg41
NsbsI5
g1
(g91
g3
Ntp364
Rp365
(dp366
g27
(dp367
I0
I3
sI1
I4
ssg29
I5
sg30
(lp368
S'[0]'
p369
aS'[1]'
p370
asg34
g288
sg35
(lp371
S'gAAAAABbyBFiyojNyUax8DpH8p9uObYUqlYVNQZNfMtYIijDDOKjqktMrdAcu57JR4oiJ9sqR0szDp4CcAAzqhf7lQmhyFN6vdIbMwd4K6THrTsPfKxrz_7ReeHIEaHvKo8Mq70kmdBWiFJ-YGZn5wr3k_tVFMeUIIeMgVRJkU2X90tpPjbRs-Mxc89EOCXEyr4ZvpBC4u47gHRh7n2CkmpJ-ff_Bhfc7w=='
p372
aS'gAAAAABbyBFiQuj2kTV6w6CK9kNzCD2CKwudav43xw2NqTpeys4L5mnfOkyRVlHWLXEFPEo27bhndSO8YV_pZBbCNIGMGtwwYjTirzJA_acilRW4gGJlc5dtQMamhEcyly2ikMArJEtARxkF8SQYVkRaP39dAL120QfPf5sUvjV4P4dnu2EqyLKRaFYecxx_JCcMGm3BlRADFI7JaFM1EFxi5uZYxWOoeQ=='
p373
aS'gAAAAABbyBFi3Ukc4Hoz-jy1y0ULDysa-3gCe9p_Dl8sJuM5AynC3Y5dfaTr7xbO0b2OIRuGcBGBpEKxK9vCWfCFTCr6GN0qkenEXoT6u5ZGZFz1ajBUHtQUxIRmU83z1GZUOCYb6gpoC-WkXU94MxGxZtwZwC8YymepE96_bDib2zpojxMmsUjEARZFWLMshUNkQgvhkRemExVaHen0ldgY1oMcyHd8Dw=='
p374
aS'gAAAAABbyBFiHe6AoDlDO60zwN2MJ-T2PbItX4P4wXNNYXX9ksonTnDctRIs7DDttBJdAb92alsM6h1EeAfwyTtlyZgyuPFdyhe7ESbD8ad28PxuySJeQNvOH_aFSBRx5kkPlgetf6AUrcYJsdbt4lch-ZSo7kt1uHBL6K0Ot_VlIEttLuYibbdON7wycNsA3eMDUlzVr6KSwGw45geqjJ7FQZN7l8Is-w=='
p375
asg41
Nsbssg104
I4
sg105
(lp376
I5
asbag1
(g2
g3
Ntp377
Rp378
(dp379
g7
(lp380
(dp381
I0
S'b33oK5Zxw_2FSWY6KXvu-vMJlblEkNspZ1c1LvRhIqc='
p382
sI1
S'w3AP3celHzx4if1s2BSwRR6fW_1m_BLI4nBiVYCoVv4='
p383
sa(dp384
I0
S'KZ7nQMkw8sxsFGrtA-4Tst-sbqTWcB-vqVtvycni8lE='
p385
sI1
S'1AulbKvu8FKe8PHo0gGkMUasLdE3j_2Jy7Kwm7ofKcU='
p386
sa(dp387
I0
S'PPCp16LWT0G_jJn15JywIdUDUsl8P3uO8jG5PtzUr8Q='
p388
sI1
S'aclyhW07B7DbV2RxXI-2MTPpIousGgUOsbi6YyVSC-o='
p389
sa(dp390
I0
S'MtrKiyu9_SeeZ3WpzD74knvVAkk3NDqhOolb8unwz_E='
p391
sI1
S'OanEpkvFgSWTQB-_DZ-0wErl6loTPGOaGWXJrYwMroE='
p392
sasg21
(dp393
I0
g1
(g23
g3
Ntp394
Rp395
(dp396
g27
(dp397
I0
I0
sI1
I1
ssg29
I0
sg30
(dp398
I0
S'TWVXvCuWHWzjMmW2xDhEnnck5OrIZMMkgCI8AtzARY4='
p399
sI1
S'k6wxSFQTNXgVlZ8vEi6otYrO70gY_fkxfQvmNo3WND8='
p400
ssg34
g378
sg35
(lp401
S'gAAAAABbyBFiW5Py9XBSrAe6HGtOlZHGPit90PvtQHpIuitNPUOCCXkhXtJDv6e71jJJO37kNOAysKP7TsKOgNiLle5bk2cSuoTuuWDvQ-FkYB1c1ON9W2P5TdWxnVvaDvEFIVQRnrwQI4FXYOfU6HtyEttVsMhmHpN63VVDIHZzksjEanTDjwTpn0oYlElmwwVUYfuJ3PM3hnT2u4x0TYb3UJU8Sf344TpccIlg9L6Fsou4ve8JO1tEIGyQDYzQ3s6oldxhB-2_'
p402
aS'gAAAAABbyBFi-FR_56z3bNBgCOAR4jpUb28D8e2k4M0yvEro-O2DWDrenmtPxlKymP1xKG7pcSs_1F7FqLhRU8AmFw-6PwKvVsjZABH8VH9NuB6hxbP1Y_Z7Wto3ttjU5_oj940Gv-G_KUtkFao8gdm28EGSH-vQ6NaHRrfpTDqaWXy6Nu5YXmyZyXepjYzLwhllRvih7naDJn8GiOMKjY1FR8YINoZghveiUZZLeyjinUf1voXUAkBhick7cJ8Fbu7GNKTOkkXa'
p403
aS'gAAAAABbyBFiQFkJg6P2PQSfiHE3VKLGgseKguEgmU7k5AxxERNtY_nE1_K54Ut_GTK0MFrBDYCVy3kJjEN3sM8Gp4w_dOe8FLdBYBaWj56kIwwGIg_DX6YuuQ724tcM2JEBAwEdq89GhmD4rlH5K8FA_ZbPwkdrGa8bbkfUvEJdPS8lS-u2zFJOjA0zBKwbuwBSJ0mgbrQLAyv3iy-DDpOMau2x8PgGcANrGGgMrMyHAkag9Clq2HYE1876ky4qb_oQZ_7x5qzQ'
p404
aS'gAAAAABbyBFi2P67vFgAl2lE8OBcycfB-OkEo0Dn4j_B_SlS9Cn47zfN-t0BZ149k-DNhpui3ludHisyZJH_xssXft6s-phATSyo0epR1DuR_kzDO9Tx0qZL6jm6hTRX1T0DBePvYzCemdFrfoQKEU0S7BqvJJ96PhzrzjAj4eDmwj2geZLVa0JseVXlKJzEcl_PnfjIcx3FXgkv4umzC7NcwyAk56sG-jBURenMcuSGdTZlbKv1w2DWi67IZPdh4L71i6V8i-YF'
p405
asg41
NsbsI1
g1
(g23
g3
Ntp406
Rp407
(dp408
g27
(dp409
I0
I2
sI1
I3
ssg29
I1
sg30
(dp410
I0
S'CjmBGO2jEUobPrynATJzIurVnv-32vfWAaua1dJLiwg='
p411
sI1
S'BF29buPTRPYM8odHh82m8EQa-3FtR5SfgnLWs8WpL78='
p412
ssg34
g378
sg35
(lp413
S'gAAAAABbyBFiOu719HTWsyPEtJN_PsfEnvwOFEDsQ8XN-rnbi-3U5M2b2nQDEhmEmVT3twzXArZ9COOUOxRmLY34HKN0f5LmPP-1kWBXQMOJIj066jym2AZfzwtKzs4upifxGv2UurSYHmN7K9jsg98wooXTnZB3GY8oteCAKgC5914mvPf00Hw6jr6HnFsR7UI8MuVmAxIx4RS5OjWtK126ZUrssv9xrxV7qtrZMdYkT4Q5mtgyUAkHNQn5DfGDkahJouQNhkR3'
p414
aS'gAAAAABbyBFiW-IpXIkiDuSyi5H1QQ5aVmvsADbpY5Dl0oJ54bgWGoAXD-G_cMJeTcEGk5TkeyPvU21sklKMYS9DWDn234p_lMnGVxwk_opzfIizhW8YjZfYcpl3VYdMNKEtUsb1mXqwUBIUyW9OwH1rr_mVjbz7R6LHl-4kn37u9urUxhb_UzlTbs79Ra9KvLyUrb3yd1b1IWmTyNnCIanslB6O00v3Yj6bXUi1fgkQpBRG3tkOnoe2S-r_zgDJDy3kM0Tzuv24'
p415
aS'gAAAAABbyBFiAyGmrfhNpPrFBvstYDBWKc15Oea8b_vD1JQFxxNXEg_iQMvND-EoMin_tFg_bHS5ZiVHBpWANgAAwDgEsGdPrpCGRW4DXoN4ejQODLafAH_5GK0NyHTXQ0m-faqfg0X9_UgicR4ax8LixEmGVqlPeEEkdb21dktGtlHcf6DC17DFQztmGDvSSlGDY0DsI3FfPiQjhIdOHZaGQMB-bMl41jWEbA_vtOgOo-ygCfPzNeSKhR5pPJcavgsNLzayhFwL'
p416
aS'gAAAAABbyBFi3gdZMx_EeuxTmOJuMt1hPbXiq-PKPOWktzgaT8gU0c6iFXvJqXeF-oh5K3zKbzWyKXbm34nlcvrTgAbQQxetMlwxLmVTNjvIWsVa7uplJRRuz7GbwxnEZCfw73DzItN6rr8KH_fsvVWLd5fwFJDLe-31MRLrQAdB_mZqoWjm8QR7Ygplbgr1Lb3mgd-btSbJ0M4bw19UpiXerwdQ1UHqCpYHO16-NMejnzDa8B0httVfngXwu7EcyY8L--APISYD'
p417
asg41
NsbsI2
g1
(g23
g3
Ntp418
Rp419
(dp420
g27
(dp421
I0
I0
sI1
I3
ssg29
I2
sg30
(dp422
I0
S'QArLlofeTi3NmuTzjMyut-mv2fHD4lfxx0PwxqpD-m0='
p423
sI1
S'4-2iCSyLGP2FGN2SwTqphkqBgwol80UB4AkNX2yle9g='
p424
ssg34
g378
sg35
(lp425
S'gAAAAABbyBFi9zUCA2-HWJaBgxijoDjliH3NyWAmpO2Nf1tjv6d3yPc5BfgLpNTtIawC9b5gBpjQdTcOA0k431WoZ5K7VSdAUFPCa3Pg7GZK26atRk2CV7hMFykia4oTxDRkb7jkpSRc0e3apYIX-nYqCqSTxbpnkeO3Jw6M53Tw-XiiEUYutpoUmHi8WWfx2_hdWBtu2LUwxf8jIaOh8lx5lnX2PVPiFQS_XFoP7z8CwC0ZgbpGh3bDBMFKNX7iCQD0GVVcDpjo'
p426
aS'gAAAAABbyBFiQ1cX_qN2idQrtLaPESaSwmLi2otW5zsJGglVS7kN1C5l-FFNOIlBqvgNFEVpTtMKdQcHlKyCJWwoR8pf1ZhzCOtr8m-iCu7nLqYIqO9yd9lY1nNTUpMnlZlVZsstbu1u6bHMald-cNNNaZloObHCCbLb03fdsbwLzEnhJM1h3CnM7nWI-M8mUDpDwTz2CjEYIQNSdNMIheQXgBj3bZ9kRcKpcxYtE4vAUGk3SuqBxt7jjg5Kx1412xsQxyj6V1l0'
p427
aS'gAAAAABbyBFih4So4QjMhB4At0Um6hT1z5lEHHT0LWNex5WJKvEuU686Z93ooSmrEiXFI9mfzb4XQcIlKtCDzNwECbcIQHjfU0Ivbp80664ALXDUmYAdA9lTXBgWwSEZXswTG7WDggnNlWYLxYaVpq92c37xnvY0I1FyqD2JK0cmQe24_bNLhiGIhkJDWTW5XH-tZ6Vrx0dkctXL1ImG7jSAoiOo5Raa_o3fRvGQ1o50_qEHbpb5CqdAzYLcuA4UoEJqvLwnpuNq'
p428
aS'gAAAAABbyBFiSZJhH6bFg_7K5vWA5qL6I3XnEvL-a-nwz9jxwOjA5xuulnF4EMEhm2OsMIjTFOTjtbWdE-I9u9PqB6Zh7t-6thWovu9d_OJMQUllSsNNQ83MHQ9IV-ktEWBfM1Tn406ZSQyHz5L0y-wcG9Xj9F6S_E5uW7K9QGAZfqJ0CgjQWAl__vmaX0ZLbv32PFpssUVOalKRIQ4tFgHCLSWIC15RZ-b8kinTK_iPNWSbW-YH5YtD9VJecuO1ejyCoVPyHkIX'
p429
asg41
NsbsI3
g1
(g66
g3
Ntp430
Rp431
(dp432
g27
(dp433
I0
I0
sI1
I1
ssg29
I3
sg30
(dp434
I0
S'JDDWVP70siEGDswOXkjh7JMIs2Jy6sTCHXwxfrmLkj0='
p435
sI1
S'N9Pex9NCaYlny33m6zvpHDXMEMj-w8enXZCg-NCDDU0='
p436
ssg34
g378
sg35
(lp437
S'gAAAAABbyBFioRJbEegCkHXZiA0REwZXXBFHDEIxRUe5g_xXnJ4MbabivbjkRlwtR_e-7ObqSPX4JMzv_avpoGzOiT_cRTsmATXLIJTQA401dPvL5RKwqG_2gYkIfy41b4ldVnGZhD87Di82niN-cABW9xKmH1olqS607VI5KwYMYE4K9LYF9ygBdn7CEDl8ZVMQhOMORwSkSjWXP8vUNwWuKuR3ZV5nrEj-nZ3mXSp75OeCtF5kk4xj1AZKsKL4LWcRVvaipGkX'
p438
aS'gAAAAABbyBFiUWwGov1DqwU36P7GkatCd3xyN7nA5BhD83J137jCKNzjVETk-fPoHtFTiDtaSA4u_oH4k2UbH1zL1Kr7lg58LiDc1KX8TrR1vjsJIOeyGdVfjPDloqis2trp9umACZMKWJQpKgNj3zIkHBORct2CNH0hS0DxaK_tochdVZoWoIB6ZxYboyMk1pwn4JO9bC2--63nFtiDSr6jtsjoAThh8WfpKZvD1Bhn7Ks7zZrpwLFrWH71SnUIB0EyQOejUjzE'
p439
aS'gAAAAABbyBFiHFzhSVTXJBP63b7vj99ZPwUykbppnfKuVZVB78Gdmf8IdyQdshS9DH8LSg_yKjFzsD-9PD6S1V2jro93QdP7cBFiE1IeKTk2QNelVehngBzTDdDCQsa-h2QQFMRq1jyj3mfq2wgZhmJrEzXFhfhnzU8GWU55rynWf0TfdVqn6F_qyqoZEQlVAnVY5LMMeb9unUbkoNCl5oz9xMpWsfGrBgf2jhX-8ICTm0pPj-_zrXcNxZ_-5VL4dV8ml0OD2CHX'
p440
aS'gAAAAABbyBFiKxRPlhJ2mHCChRpcPOE1Bavb0Zdm3Ec3swuXXSbTrJ0yIyjNHEWuwl43t0jXN-aQASclqLgXGFoyPhAzq0Dh3Pr9WbC-SE5Hw0DejOzSiPGAL4iY_s-SVDIT6waLVfsd219QLRfhvccPFI2ONDdJdLpFieSDtMISoL_gLWtdYVHu2zry4STyEvI10cfR38JZF6LurR9PQneUF-D3XKJafrm_6RLwAii7h4hJl4M38f09i3ilJEzvPfoNRXXUxODQ'
p441
asg41
NsbsI4
g1
(g66
g3
Ntp442
Rp443
(dp444
g27
(dp445
I0
I1
sI1
I2
ssg29
I4
sg30
(dp446
I0
S'9NxAPy1_DTqcNf3zHL00-Q-ARYCAJOtgewdPgrPByx8='
p447
sI1
S'ZDHqPqMsgCilfoqCwxZD6ferqd8zZj2g4SbWxzG01_A='
p448
ssg34
g378
sg35
(lp449
S'gAAAAABbyBFiWWLlbWQ-xZ_CdXtZYNYiTzyVjLgreePKR8gaJVuiC10hu4J6TL73mRRN39LeC7VGDdC01uXPdrl76UeP5BpWTh-IHUjcKtgq56xdHnyhc09VpFTcHBhjViIDndEY2fS8WDd0YIBcRxpS7yV7r9SxvxQZW3CXgIwOJjZ4oSK4on1MctA5Z4GdHDMAlFje_nE7xbPzPt2jboHJH5jocQMKhZVOAbP6ddbdnhxyRlS7DkwsS9YwfQRfBKYgZ28sqKlV'
p450
aS'gAAAAABbyBFiuL6lT9KNj10jZKGvqX6H_jfb-HreI3CFb7_UvsDPQXqAq0_LX7s9rBL5rYhKSFKEbHWBlY_o4EuUY2q9U2-FBS7etVHn_GTxaO1sH9lrWtKWsLro6AQalwKoDTdc-czoVk851FmDONgRdU9UV0cPPUhS9O4qH4DjWa-MvkDUupoKuk4THqSTMZt3JLL7cihf8uLlyzvzr1kOn40apdOZT952E15FROuOD399z0LU3GmWfdufcrpWC3NlDanXvw96'
p451
aS'gAAAAABbyBFiu1e3jlgI_uFaOk-Q8VeD7fh86CCryMxukOdD1EkcOA3eDxFxLpnS0k3xXp_FmwkMLkxo49mGlk3C6XverKibDlgqGOZOFmvsidcDSExUbSRJvjH39OFDliELCpv-2MM1kDAPhdQmtCOuHng-WImoAoZvTIswTeKljKCN8R5sJu_T5YTo-ar8CPNiqxlXiir5jvh3u-n67815J5B5L63YpPjgV1aIM6KUu7VaMKPoVnKqasbnsMZn5Xpli0B5CZGr'
p452
aS'gAAAAABbyBFiMn5HSaW7040hxay6AQLHIdW_mrfn6YFBACkhWb8gyletAJywQpAb--Q2rsJvqcu0y-PaUx24oJepXjAkjskDbITd4Wzo_jzT4NGe2hJJX8CD_dKjvLCxx6zQeupHnUf_VQc-MYSDqnXDp-eRy1moVBauCqtQ39zsR1RhkSK7F6QP-4bBRRSO_zxoPB8HirDvjSmqWqzybxa7M6f3m4iIg9vH0OCqVDqf7DnzRX7ZvmEwfOe1AOLKun8o-39Z2QGY'
p453
asg41
NsbsI5
g1
(g91
g3
Ntp454
Rp455
(dp456
g27
(dp457
I0
I3
sI1
I4
ssg29
I5
sg30
(lp458
S'[0]'
p459
aS'[1]'
p460
asg34
g378
sg35
(lp461
S'gAAAAABbyBFiGPUmd5KzTYpgHwirwlELi0AAaCGImIPgArl95GZ8y9Z0PNtZyo7jQZFNvaKBpNdzy4bIE-Uvdk-sjZ24w18IvbC17J5-bQhXTJdHKzdzxMYXDNYPyn5uyRJQIRuPUUjL7FixCFWyEYNccy1os4HiKDN81dsu8VdIVtpG9WBBwpxz-Zy8nrWIKpBsgGdbY1PU_LOKZytR8jhjlvXHJmxbBA=='
p462
aS'gAAAAABbyBFiQS0lCxt6_GxSGedhB10lpRD3JCK6E6MPNf5UnTOxS1dZ5wXkMr-h6NnqQVliDnw2WIr1WUDtweDH3cusND2yA1SI7laeHHV5huZaW4hevu_pESIs9Yi7k21iCgu97VgCxaZLVI_8__daGCnQBmzl2Wdeuul1ep-uUZ3VL18lyN0SwINNKbpUzJXcfpowgZGqmtToAe_tM_LuRusI4kICEQ=='
p463
aS'gAAAAABbyBFi7YIUsyvDTeL93VSelpBy7vxtvsw1eDHpnB8WzcgmtFJjA3_x06IvezQjAIRfC_L-1S9AHjapqPelx1ZmTN4f4QPryRt6Aec0ClnsTWU9zXBRdbTJ7vkzXaUFclK2GTjTcnn_jG8qqP5YQI4M488dsc1iMCepnAUEun2ua5xpgvW_G1G8g6hUCymK-nxgYNPdt3kxR4CR75-yl-TLu1uVIQ=='
p464
aS'gAAAAABbyBFi3QW1hx0zTapnE7gUUJYPxFz-s8dxMY0cqFTEx5-e8_mf-FjC0j4z12s7mNo9A0owod0_bXKmjn8QqZvnLqDkNO8ZicXCnfb8FnGK4vL4oSNnoAqIRoC4vItSI0DixZvyuD2p5czLen7U1RGoYbua6Ztxk_XKiqiwbzGn0CwPjNqHkpJcGKxjMwdQrpUOVucqCdWi06Tcc4JQj7Z5N2KN8Q=='
p465
asg41
Nsbssg104
I4
sg105
(lp466
I5
asba.