(lp0
ccopy_reg
_reconstructor
p1
(cgarbler
Circuit
p2
c__builtin__
object
p3
Ntp4
Rp5
(dp6
S'poss_inputs'
p7
(lp8
(dp9
I0
S'IbPoJ3Dwk_pTtQbLwV8qQprmO02ewzMljXtEKrNoi5g='
p10
sI1
S'dgtF5I9n2Pq8l1_5tovfJV4NGXgjofPkCPO31ySH_Us='
p11
sa(dp12
I0
S'VW9CqZgfB5WVv1rgA4i43cJOFRramCHhHzpU_pEDzJY='
p13
sI1
S'QalJDGQmlacn6R3wCiiJX41pdfFx-5lx0vV0vwyLvm0='
p14
sa(dp15
I0
S'UNk2Z6HlhhPg5PEeEceq7Ll2YzeNq0hL2TiVQPZVtBI='
p16
sI1
S'vZ8MX9c1t4hiQ4NKvj7AbRNmZqqVpHopmsOCh0hSO6s='
p17
sa(dp18
I0
S'vOms21sy1OIz3WfDmsDmf-n2xv8CafIMd36h9-XQuqY='
p19
sI1
S'8ToMGct--rJeld_OuxbrEJAZUQgC3xphky3aNW3CYh8='
p20
sasS'gates'
p21
(dp22
I0
g1
(cgarbler
OnInputGate
p23
g3
Ntp24
Rp25
(dp26
S'inputs'
p27
(dp28
I0
I0
sI1
I1
ssS'g_id'
p29
I0
sS'outputs'
p30
(dp31
I0
S'agArOeEHW78I9GF5QBIDnwnHH4YEvlHBIRhXaso_Cck='
p32
sI1
S'FO0EMf7_Q5dioCWSEHa9tjs0S_HWVXlSn4XhnB_DSdQ='
p33
ssS'circuit'
p34
g5
sS'table'
p35
(lp36
S'gAAAAABbzrl9peKXE8Itd6J-fiDxjKAB_VkOpbevvQ7EMUbX2OsXbNniEjI9PZnLuJ5AghxGk7KrvLM_MT12xeuib7xSv8qlopG8AUcLbN-k4iy1S_ZT4Y6C7Xh29jVG5qvCJO62907sZVxNd8cPj7eRn3cH9oodq3bmN5giEbEQ6oEKt7jLNwtE28PMPAIdJZ8lkGDAPljF7UtbI1A6P1jA_5oCgXgVm_Bx2Zmzpx1UNgeOcC1Fzmm5aWt1CzvKckwFDiGnGtOT'
p37
aS'gAAAAABbzrl9ngtSArmVb-T-BAq-O3R9-RHqrWpSFpgH9i4aKJ-g_e7hxJjQwJ3w9ZHHWdsa0W-glm2-DXPfHTLOEv6gKWwiaHR9OqWur24MB4vgAzDMGuwvHKJcI-OnagtvmqOHBkm_lwZ8N4XATg81xooP_9NAh3zzvsXiOcjiUztBMAVQMM89ZPBsGWABlepOvhQ1Jt4IVt1yKgZn_savrGYaNLGz4dEoLCXg_sUHL-0gq5UHZAjRqcjJrDy6itrQ5gw_NHur'
p38
aS'gAAAAABbzrl9u-2hwKDRhGIAR0C0G45st4EfKd_6q03CTvaIpPsqncsd2p1SN_gcuRVML0aOQSXj-w1UySxV5QPde8wHiqI-S5dqqafWYpfkKkpGbfbVyI0X_aHjlp9gxyOerma0--nbV-Da1nUzEQTkLs_Ka8dn5jIdg0bjykR3Hyablib5ku1YipIA3-aIvJ_FvZ5q7R3BZemsVKu6n8WPcs1m_QbwyUtqmCovxSEB-aI5OGxzrODjP0QaN97MeKHim7c3wwc2'
p39
aS'gAAAAABbzrl9e44OM_JLjk_U1z9NDnQJ1w2vovodzz87Bf_Xm9zRkMBhqMoMQ698NTjk2ZryjGkJbiJOKAppBNDDwgJJHNqBcMoxfInegIRYZqg81w6nKp2M5v_C7DAhbO4WEACMRpqgU2ps2s-r_sLpE_3GpUnO4l9G5VD4dawuphrK1gL7PaFcUxgorEHiDRPsu3cdBhjJg2MBkI1_uBbMOdIe3700kzjXj2uEyJXGvVUSnzAtidKn7Kt0yNIiJGGYAAl9MaUf'
p40
asS'output'
p41
NsbsI1
g1
(g23
g3
Ntp42
Rp43
(dp44
g27
(dp45
I0
I2
sI1
I3
ssg29
I1
sg30
(dp46
I0
S'3pgpqxNmn_RQlXbuOWBkGQWg33GA6uEq12oDtZRKrCs='
p47
sI1
S'ckiTlbNF0ROG43MsYE-NTXPMSNaYbkmr_PA49HVDxLk='
p48
ssg34
g5
sg35
(lp49
S'gAAAAABbzrl9fA_iuPoEmeeXHURYCYbdNqk6eYHn3agZAOwJjo9uK5S1YiwafYOoPQ-3c1zd0eSofNizQfJyfUyfUBqyCjHr0NLnrYIRtZ4enjzxaLAGOGlpv2v_oPHnWOwhR04RJbfFlchHigMWcCsW5NiN_y2a3fbkbj9Zq2TQArWHrDZF4iMQMWbU1dNW7EGEsWvgDniZxhfhwJ-lNhTp9ClRwRIuM5aAclxTVCQfU8vErSU1z3sbKmhClfjrBetiabNUzbpH'
p50
aS'gAAAAABbzrl9CwaZyuhR_FoNLquBWewzvezZDt75-VLpc0_IFM9Ifa-1JY41kgZ91t6uGDCe74DPx8kL-0gx1OWT63u5PKcdmDOVGD2nrEvmedlL1Gbbq_FU4qwIWo5Oq7qJVIPHXfhouVFJb0pk5BADPOeXvy7jpkxomhnRuEECUbjoSbfXkAO5YITKpBES3jIDGFKoiI_4EufAdkEDHneIFqYLGzgXBwxeMMOwLxQ4NifcwlpfBZCJCq7-LwmVI5R5z6CcNSNx'
p51
aS'gAAAAABbzrl9VvufoXgVjH_W8s2SgQV6kdB9_pg_hAGFHBQg7NPyGoesW45BAI4pQO6CMTYZFZ6tI9HvGYrcVnAP28eVp2UKh-AoX_owKU5alKZq9KEX-MFc_TafMgseXeYLrVsz_KLxWdG8u9PJRFnmG01iKL7c-Z43vZgq5E-MARj1g4ALGfI1QDy1yCsMoXolStgXRxLmDThbThxG1zl1w2N_Pt990ecHeVHWOjYQ7uuc1ZwWKtjHBAbHSjYoj8OVn3BtuASh'
p52
aS'gAAAAABbzrl9lcXBEYIl_n70LCCJy4nfUYYovwX3adz4VFTb75NMLQdohf_E8N51-dBX3HqtLXEHhsWr66Gr88soDOZW_jWuWqjYsCrfGo9q0MidwVKTbkkxuNKEbXJhbKBCP74b8qOhafDu00Phh5EofdheWJVNA08Z5D0kfvJFqpp_xIuYEhJg3ueg0UQtih8CcB95H4hEmuCwhKeEKTZBdF9SHRcHoZCz78wk8154MYuuNvfPLoHFrVvgd5-6vSM1eHW3B7Iu'
p53
asg41
NsbsI2
g1
(g23
g3
Ntp54
Rp55
(dp56
g27
(dp57
I0
I0
sI1
I3
ssg29
I2
sg30
(dp58
I0
S'FHszQOjdt2z7VTZ1TBMjstHaM2CJA7BIhbW2CuhcPAs='
p59
sI1
S'YT98MZ0HKuzVvPH-lTvqBW4krtTbkcbt7HSHu5RO0U8='
p60
ssg34
g5
sg35
(lp61
S'gAAAAABbzrl9Y7qoxL2DFxGoF1_Mgyb4D3bkbHWRhsPuDfy5Ee5httl82zlRqgobDki2rOK32TxszVW6kiIeFNevWFQilbGnu7QHC-hKBbdJxcAmSPtTMvSnKSDRzH6n3xZ9hOpoUgHiTL8pBOZKR98JH_H7IZCfn5UgELOsuV-Up4KVLrus0a_2ohNRqzxOk_T-bSE8giAFjarj6A708yIOwUpgws7ok0MvMCr8GTB65dy6sYu9_KDCCuu2W9bF3v4r-A4qWZi6'
p62
aS'gAAAAABbzrl9ZXZRkPX1O1tbObT7M6-dfUEvijMOTQnlWKdZ5r4ahgmkgvHQkkQ0KgUj31gRUvLtpBUMYhKeqv2GvrcJdRdzILnwDkrCP5Ih6KEbVfodHUWiTXdrm9KRHPyfgvdLxBsa5B_2qJIabfH2uESaPQAH7Kwo8PnqyG-7CFEKXle39KN12oNR6jfEZwSbaYdqjsF-fuk2TH7Wx2J1H6a_XnTf_xM0pU3mJcZ9CztFactjjY3-DOk0T_JvoEbaepZ26uuN'
p63
aS'gAAAAABbzrl9_OsQIBzHT_2ZTaJn5ZQndEHqrdjLpIPR3XojEaxPd68pQRF5cWRB0M8JjrdHRK3T0ProlMPMxRYq_cvlFyn-Yv0fwtlRxUhIRIvVP1UxZ3KzEKnpLOGJRUsyJAEYNG_5epJluFfVaqM3Ge8-lqQjlrWmUvpAPmfR173bUvNGSSP6opZzAT9QqqMOWBMW8rgZi6JYWEZCeYGdbDquMfrpbIFz2yxWrjPt3DBh1dFnEP2yqnlhlffNEHch8G_1yKlu'
p64
aS'gAAAAABbzrl901cjdq9YTDDDsc9CyKNq-iyy5nBFvwkrE4AImO445N-LT2dDoxuIXnR1ZNAalHnN15RHavC_H2fRGYa1-1R1lZ4eWz6I_2eeK9292q7tT6QTaB6YThvOzXBd-JF8DllPD_wvijwDUtgBT9V0YvbuKhLMsM3eHMLqkVwNCPwR7BSrDi_OW9z8BX3oeu4WmlCPNuQj5GM_aNPyUXsmhFIBQjqg59pQjMIrriWGlRk-omXo90T38q1hn26mz33pRkiE'
p65
asg41
NsbsI3
g1
(cgarbler
Gate
p66
g3
Ntp67
Rp68
(dp69
g27
(dp70
I0
I0
sI1
I1
ssg29
I3
sg30
(dp71
I0
S'F4TTmikjiVKlmlufiE0X4ijL2zqEUvkKcPsyKvmZCIk='
p72
sI1
S'zlvVKc4bs_TJ3gBg0991mfDBV1zORQEehoD5NxhXMxg='
p73
ssg34
g5
sg35
(lp74
S'gAAAAABbzrl9Ip6jFOWNkqkRfdx-osJAAxfQYaXJZ-a6MLDu25wUIBRN0Hs5xEy1o87td25TUFOGjUEDsUsnyynoCBb3aEUHaCNXeiOEyoZCN2kAU2i05rUfOFpnYuDAQN7p6ehd6XGQZYMiEG5Wrgw9-k_Ho61fye7NK6zpI8DO4IGG5e8GDyb93PuYntR3N7jLaBNU-iiVrHzFRMIZ15y8a1-zRtZsf9tLO63kfHXt3lMJ8zuwJbdVE1KPGTNN7RB6z0AQ8aTc'
p75
aS'gAAAAABbzrl9QhBQXNvrOdTbFYgPSDPGime29Zcdn1NCYwvpIzg_Lx1FhF7k_i1mQMIdTrjbDo6o9bM_3MMmYPXHQCt46xIrqEhynT1laWnF0XKlAurVK-WpmJmViuXSrJISJotI2CK6UvRpc6QT77AVkilVgFbIG83O-fDMWpls21phDMiRURHw2GNFalGBdbzMAoiHCPt3XTNTrVBlC5HAY26pfmquO2gobnC4UeMqlHlinVoi8arT6glcSo_y-_N4GDQkzQ6j'
p76
aS'gAAAAABbzrl9Xj6UFvce9OpgcWAkwgvf-FTwI51JAj3FM0JEcw6RVw0Oja92xehehwaxQ1yB8dYVMryOKVXu_g0lD9lcKfRn0zGFUa3iVjs9wGl5qI8cnifM_QZJvSfZrz5mc-8SmFeOU819cu_I6BxBeNT0c7uC2K0yk5aMQ7ZUK5CiYSc-jGZ6LgJhIGMYNO9iRSYlUDk9LdOrFBQ1A-1ESFC31qpz7rvUgitOV-zFWpkErw9smjlzTEoRyltTADzvy6Ve0KEA'
p77
aS'gAAAAABbzrl9sCcUD8iAr6QOxtU8kTP3g2RcIsB9o7Xz2x2LJOjZGDMT-sc6Lx_inbFcoktZdnvxPFldiACmB4eMwHQJdnKxJZQpTLSCVDU8oKUNETmFwbuo_1VaRtOakMs09gF5dFgYhmCm0J_XgkZr0hmiivO8QbL70uuAu4ub7khC7u1U02pf4I6CJLgsmAIuL-EOszoGGfqbiOVwxoXKTC7stO3cUCU5e-gHswuUkv0VR77iNuOQ-Mzl0wuMsxdeA9R8r4k0'
p78
asg41
NsbsI4
g1
(g66
g3
Ntp79
Rp80
(dp81
g27
(dp82
I0
I1
sI1
I2
ssg29
I4
sg30
(dp83
I0
S'tAqV6-pstmOmrNmegbaeHpso2qeg_ReL77qiCftmYiE='
p84
sI1
S'5Vft-7C-xcarwdAjvLTd12hpAlhI-PsbuuOnKJAWbUA='
p85
ssg34
g5
sg35
(lp86
S'gAAAAABbzrl9uCanCFGZiq4-jAL4DzLB4-B04aqKJ-4sTbxx9Xoriw1sLDq4KdCqbvw-gy1rrZUV51ReOa6jtayFxjiS1KTSIzuU6FRf2S8mSBOM7Ftp6x8BBccJgsGScG1R3SI0ADcbQHzXIjeSQ5GtzHSgO5qCkTmghOsNxvn7RGMH_4s8x82R_dJsYrLEMDfdupciqIsVckKzQOrNH47qlOnSxUjTh90J3Dpe5bHEH4xkUmuL6qEByfJVqw5vigkNH5y9Qb2S'
p87
aS'gAAAAABbzrl9pHg5_0ScE4VKw-Vwk9bNLnCkb-HH4-2lKM80EG0DkfVBedadT6ntKzrV6oNOpMzS-w59Os77vrZ3B-9s431EmHSpDp_WilUqjDcu49vtHi3E8YI76flw7zyg2sXq0iJa44Rd_jazM04qTYwSurgDDNo5VdcDcYhktimt2LneTeKIkWNkdyNwhOVao1BZhUtT9fZX6QO2siHszEl2-Ciz2_k0fU90KJJW46sOIZoQYukpirgKuVvDJlx3HEf8BzGa'
p88
aS'gAAAAABbzrl90iIxb7uFCLzb_Oa1QXS2n9zK-nyvBMwlu1ZPn8VDAsEF5cHZW4-V6tCl-BUnIA5en-G2aKo2kmcsfAetiZnea0xuvQFZMS1afeEaJH4LNagIrZAP6Z9HVjJdCfwfOTq4aVGl2SzIrAFuMThIDtUSHE0gqgYLto_yN-CzlsnsxAL7nEaiqSMBw7hKIHjnljF0Am_fVr8l88fB0L4RL_a1tSsOcbPJS2Rjt2gzhDkLMs7NTGkMDo1bsByo0VzR6M_I'
p89
aS'gAAAAABbzrl9Tzy-tkR-pftOvXUv3J5KxjjIiHVe5gtYJTimwzCTX4nPU3kjce7zjEhkXmFRXAQBCiGlm26QCmmyzJu1plXAlEU6ljDYLpRwS6kFTWrMqo4HWuWGKyvrFF1e0ENwGGkXLYxtCxF2Gz58kJJZrwjHGzQTYp6Vp3hUqbFpsnLS1O7PGZ8OgxZ4Ns31qBI-3lOAsRSXFrEEZlxirUB76q02WXkKX_2zDAyO8x3XuyTkYcGy9k_RqOiagFpIW6qdalYn'
p90
asg41
NsbsI5
g1
(cgarbler
OutputGate
p91
g3
Ntp92
Rp93
(dp94
g27
(dp95
I0
I3
sI1
I4
ssg29
I5
sg30
(lp96
S'[0]'
p97
aS'[1]'
p98
asg34
g5
sg35
(lp99
S'gAAAAABbzrl9HEE8eQ3GaqU-etAruRsIexhMNtPmwTNoCzykFKbcGf3FRKezAcgMT7wBA85h8vpesNraKdIAg-Dj3AwuLFC9hJ_uzHvNIsFLuu8Cf1SkMQ8BrIEBgW7DjS8RclxpJ9G89qVqfDts1OtO83fPOJEw7J5gNL1mgmJTdkQC_JolKwABjcRkdzSUN1NmbJJDcPEGJHX1WUkfbEdTDgcOJ-UKLw=='
p100
aS'gAAAAABbzrl9Ml3V1AwLjkwZs8rczGSjGWd7r5jHT31hl2OqillGT8Vx9K7-L54RhaBoSpAS-ZUIf9TwJjzxiSE0-jq52Esn--8ubOmPTceBgxGUUMYC4HHvR03NcxYfHGkdGMpWsFhxUAKdth2b_JNxVRaOYsreiCK2r23BqviFuIsP7Ct7FtESpcfCAccC3EHXUxeEpfAEW7cIbncGWGeqr2bhRiX6vg=='
p101
aS'gAAAAABbzrl9iNDmLIPw5AVelN5oQUmmGJyPP07g8_w2RQqG-Lybq9C6TTw3XVNzftaZiKu0mgRQQQeyReXdsUV9ll9lvogZE53qI3a3juZ25vY34q0SGUThQ6C6g7XI92QvOCsq90Vlk5Y4Fl5ZSsGvbqAkF44aGQviTh4_2N51oYFrPzRoPTx_E4ECMHtQ0TLpEcMV3x-Ggck4_genlwePLB24BmSmiw=='
p102
aS'gAAAAABbzrl9n4DF3Gq_D3eOhEwKwKq20IauFxkixGEXDJsQC5vBWO4RT7xu7gadl-ZqdTD215wsFIy8xtl8Jw-cht-uaGssTOo4jmhpgWMEkFJbcdOEvJSaz_PVGsQOZSymGlNqKg1cfgbdmx8uk1LDmwAXwuDCaH151IvRFerfLaoCcCa6D0q2e2Q0hVrOWvFc8fqAz4Y2nu9QWHm4GPnmTWR_HJjEtg=='
p103
asg41
NsbssS'num_inputs'
p104
I4
sS'output_gate_ids'
p105
(lp106
I5
asbag1
(g2
g3
Ntp107
Rp108
(dp109
g7
(lp110
(dp111
I0
S'e9h8TrmDszEWAyYPlZDJE9LMUgggHrmuRaSyK8WSGcM='
p112
sI1
S'wijxL-HkAA4X_lllZsZqWroOeRvboQpO7L9-m9NIo2s='
p113
sa(dp114
I0
S'raWnXFOIXQldnToW7DcSSyv2alEDhc3x2F0O6F6MEnA='
p115
sI1
S'aQQ0I0_J8ot4Xn6Ei9rIqWuhPTU-bHBI2ysP7rg8TyA='
p116
sa(dp117
I0
S'JjGIc1kI8exI4eplKZDD23h-ree1uS68-4Q-Z5CSOxw='
p118
sI1
S'QrtKQ7QKRbPUFjUkfN6ti3uvBH1MlwQcXVPfVdIXDIo='
p119
sa(dp120
I0
S'GltPlR6XxJSgHYrGY6Aa-_gvHF6EsUf51dTH2KF7lhw='
p121
sI1
S'jT3lQ_TxodE8Quncq0RJYiL-_JwJn_mvL7gqGxbjCYw='
p122
sasg21
(dp123
I0
g1
(g23
g3
Ntp124
Rp125
(dp126
g27
(dp127
I0
I0
sI1
I1
ssg29
I0
sg30
(dp128
I0
S'8yuRjC-C7abE2MbypspYo3i5I0gA-Mbj-jChCZaeIbI='
p129
sI1
S'g2UFK_Pddg7lslcmDThxxrsCNi_MfZ6z5lcYhzI1cHY='
p130
ssg34
g108
sg35
(lp131
S'gAAAAABbzrl9V92ONyJKVqYrx4lgDjp5p6ZC9Lu54uFFy4zh7v1vrXffAVa0rFBRIgEz-V_sZw2f8pyqBx0IX0N1LLdIIwbOjevEs5vhrGZchY87GYoimAoH04rbbNNuKs_NnGaBGyc3r-wObutD2G6rw3kCY6014MCpYSOVsanFdhl8T6jvapJfRxMsPzkvObcENUMZCVQUV5bpwxBYt-hb4V-TB9YeqG8H9FrSUd9P8r6T4T1RDrpd-bHhRojNQP-TL7bJrLOS'
p132
aS'gAAAAABbzrl9s64TF28AqtUq2HYx2R_Fr80770gAknnwfCM_vIg8yIWITYb8W6m0rqx53uoxIl4HkHEhtOngYofl3iQOZIwkk2PH5jQY1nroyLEGGk5vmctfA01gdgmeBExTt9U0B9S3pbn06nD9ynGF_01TVfZp_AWn4fdNz5yqy-r5balH4eKSqQEU__v_yvL6Ro81rxv4P6PFYBeuxuf4DJ4GGveEibdB3P3FSmMGbO6k33Q7LLSdRBZox7I68qtK0MzVoCTL'
p133
aS'gAAAAABbzrl9LDZXMRBqwplMkdG3F4xpn1XA_gCyxIo38rLCwLZv7oStbfqN5I6qSdccGjZGipuMUevMeuFCLSLGNNzcCLpihKF6F2XZ8l15PODmWUV19kKmKKKFWOnGoTmSSZ37FbWoh5p-fD784EOJIyObkHCrmEaQhZA4Y-NCeXTHYwCJWSWXKylZQ_oZ3Uoxi5amHEhcU0jw-rxJkAXsRv587_1NSygr03EESebzUzMw8D3chQmJsKVwqpy7HCpFob9NAR3s'
p134
aS'gAAAAABbzrl9nHNZhgtTSuqULkCT-eRGaaZhtUO6Ug3ThMyynwVqvjGYQE8QD8f4Jt0XOUHWqgwrcyXFncL-GY-WM-VOysNafLLqwjvzMjXml4iL6LxH31-zoxDnOGgKm6kW_wxAQ3g0xYqeqgdu5EZFmgzQjDkr2Dc5Zsru6p3ECWTcNGDnj4CYYWyIjC68OmvW-dK59ud10YU7fktZIY4GshP8O_dZn7LnaiBTmRtPckw_JJqJz84XeggWP0MWGMvxowcXs-Ny'
p135
asg41
NsbsI1
g1
(g23
g3
Ntp136
Rp137
(dp138
g27
(dp139
I0
I2
sI1
I3
ssg29
I1
sg30
(dp140
I0
S'mGDwQQYaishkbzExun5liReOWhxSgTzvv7fo8LiVV78='
p141
sI1
S'vS9ZqBLr_huJKPCPOkubX6v6lI4J347EFlFI2fBeREo='
p142
ssg34
g108
sg35
(lp143
S'gAAAAABbzrl9o6RJcjPlspz6U0gKIF6-A_UltOHLUKwpZIe759NA-8kgI0LJEzW3s174lWjfM01I7l_KcB6cAbBrSYYD0pY_cCXSr0M9RVdZMimyrWtEPirbwLTkqewd4MDGPuzqOFiyglWnG4Tea_ZDEDpEBls_pYGIR1yBgmDu8Aefqq_krfNxsy8M0Kqclcdikc7gT8BuvcPwBf8mRnwKlgVCuSb4K0SXQfZumrZlSfmtBrd4C2AqyicsbOMV8CzGkUL49dxm'
p144
aS'gAAAAABbzrl9zUPG_C083UKJ2EaAkzlzLOXgIGk1v0MxpN40AWCCk9X0EiTGlovJHS-3CKRdW-GGNtx60Kv95VlluIc7SqGreXtjf6WsnHxqAlw5LcdwZKo0LqXqdqEu8qOmkAblb8lBeaeeR6mzhaXIgKMdqqjBK0jdZ7QtooOTscj7UPEAgYm58--Rew8L39sPhsHeaxTeIOrq-PNKGadpgZKpkB4OwAKhYLUGGKuV745WgCX4E5NHZde6_zUeE4dnSbERhN0I'
p145
aS'gAAAAABbzrl9dtTqdMo3pKW3ggSYxspU4sRROpE_fupK4KHtTGcQS2_gXdvg7pDeLUJL-_Qc2m5hzVrtKu6Thj8ycQqQbAFkeEo2wi4EOJ61UtzsBg6g0G_ZvQSjol8GIjM8XIO4CnS1b_siRAey-xqs0aymTjXh-ZBPU0BRtPfYujQgcatvyT_paC-n_suo-Urxcam2H87qj0yLcou4hKsQSN82nZLk1k7zlrqA9Z0t7oMX4qsBOgUD2J1snJDnrF-KTyP1ssUC'
p146
aS'gAAAAABbzrl9hJ7XaTy0ylOPO93qmfRedP9UqCzfMKvixdN-4OL-y18oujZMkF4pZg6kQJJo7oYIlT9yVmvVbxAPKyDLLMRedMMcgay_TLP7AlcXo4jJJRnl0Ny3_nPf80lqCwZKjCQAsxwSNkldMXxiIIzR6GMfCZJ9pWLp2O1YdeiJs4373VFK2lgILE_s1cC3sIWL7cp1NtUP3GJ2SIbneOIUBa7O7ROEk6UwvJkALxieLXm0q4SDoU8KtreIRNkSxHvRSpvc'
p147
asg41
NsbsI2
g1
(g23
g3
Ntp148
Rp149
(dp150
g27
(dp151
I0
I0
sI1
I3
ssg29
I2
sg30
(dp152
I0
S'TqKM-0i939xUAWSiAIucyY7o43bfN76xXwpGXuNJ3HU='
p153
sI1
S'B2yVpecQRvBzBtI9yXxPs6VrPPXV2VA5RuwmTyQFmpg='
p154
ssg34
g108
sg35
(lp155
S'gAAAAABbzrl92KmIiHHyVWY3Sj3UNOuUvY3s9SunOsj0XsU7QdhkW2o35bY2JCnCz7CJnEF6tb4T3Jntefjr6w9zdkS4XOTxuTMuvaBBzIkmie5lXYAXVdz62qe8Z2-hqIHd__TNxDGHVYPB7bMsGjkZTeDBhVQ9beLvWV1gcWa1eTX_tnmqJP7NW4qWDMR1koGLwCdDfFHJcCSioOYeBi6ldSe5p9b0GDfjkH2bOb4t226CuggOdaVUNUdwtHK3RCAkmUze3qiB'
p156
aS'gAAAAABbzrl9x_XYcq2q3-m0IFIsLOe84ZOl2oZwg9sv2JTnAcB8J1fyC_GPhmZ-XYPgF_QQZrN2nwpYomENgl_Vkuwka1SwcVGsXqqy0I0nLxjD2Rv_wxUjak89HB3eERpBKs8LMcJ6Xa6mWqWnoiFZIL6UxjjP36FNBngyPnyVaN8oNiwWHeksEuH4cFIkt4FWGiWo8EwbJk4TPm8-ZAwzGRMO1ap-v6XjdZqtZ4yfKnDmdqW4qRrST3dRmD-7fq0es7efWXEf'
p157
aS'gAAAAABbzrl9VpUhkUlrsaUEpq4HIVBShraq50ccqbP-UnJGf10WavWMIBATIbCeQlANQG7aLkMi8_p7n2iUpk4MZ1tq4h_swTQJtv6cR55hUe8c_PEtRVyFdKUij6degsNTY3D7dqBH3yQ0AVQv0QkBvhzOrcBwUnk7735GWzbQOaSnjQb78_AkOkYtAfsXuC5EmXeZDxyR3tIUTYBtzq75VehIYLFw5KF6Sb9tpcbnVWO_YiPOfLtY_sMvRV1g4w78Kb1rXdX2'
p158
aS'gAAAAABbzrl90EqUdrWfyWxmXh8kxm-2-x-qp7Wu8nnhgi9IoNdT7qCTm04Bfx6WheM478Zncr8KbjDwKpH9h2hQxWjly7q250yJu7oKYaFhnsEVoZIW5AJo3Np99GEHOhoFaIzJGzI8ERX4VbnFdH7L2vPbHjzGgjuV0N1DaNPrvoO2rm5JnS5FmHQIph338l829hvSXQ6G2H6YYP5QAYQaEDblF0j0UUr_7zOfbG2QvVFlFd9vTXJtRQ0TVSp_jDfPJ-RRT3p7'
p159
asg41
NsbsI3
g1
(g66
g3
Ntp160
Rp161
(dp162
g27
(dp163
I0
I0
sI1
I1
ssg29
I3
sg30
(dp164
I0
S'PFaeaWaugImYIVCw5T1-offbCv8uyIfblhrni8SRcVk='
p165
sI1
S'AOV2gwLMT_nrdjb1R6k8CuyVl4yBPVxzoqDU_Ctbyos='
p166
ssg34
g108
sg35
(lp167
S'gAAAAABbzrl90gJqF8flmJSmzK-YnVhgt6sYBVpbwdfrPA8q526frW3dvIMdoMncwyQGarTYCZkhpzPKvfL4Tob3qGy6vDkME2GxUECAiORf1OeCMAF8SPaQIw1OctiLkl36O1lr3qyCBaizHtGST_-91ATQyXxAHWKDZ6MhYd78APcm0hQHhyaS5wE-jT8D731Le4r81kcuBeNt6Qqd_iWfbEvdSYnvSwH2aiAZmsLD9dKQH0Q7atb2IkJaiYck8hvy66bNSUwV'
p168
aS'gAAAAABbzrl953nApAkEC2J0AHb9Ygg4o0QtmmBxwQIe6WNHfBwFEHeKk7dChbmaELGmCXqHzCYthnIeLHRN8llAXLz0Hv8ua28TwdyZ6F52Yhwxfh1m2-jl4WBLdjKQlaEHnJRMSsz8fs7gPEkozrTGSUo9QHsiXwwFbgntviXgMZIl4TMz2Ak0Z9NM7VuQmWTztFAwCeXbSeCW8opU5L9L3NADO_3cwQzB-ok3CPgR55QyMaV4XMy5fsDDxLa9TIMc1T6DRnRo'
p169
aS'gAAAAABbzrl9A3OFa7u8UrNqkYjI9P3BojLT26GrFrnOHSx_ZRBiBdkVhM8NY3A8fdICrs1c9hlz1sQnPH_SwqrNUAZtZ7nEPOAHL6T8RKESIycam9U50RX4P6406G2rxE3tvyJgf95SAlKPa-CDDTvRAvS1ohicAoosAmCdy4EFAG7T1mpWzzY_S6CJNScooM4RlsYTH_uydiOLqTyJi3VISjosb6n7aA8aHg5DpIbhMTSf3Aieoz1jDiOjbW2_i-3ot4YxVvdx'
p170
aS'gAAAAABbzrl98mz4Dp7EcGK-z-i_4eio_KLU_o0x5Wxs1g-LIM9DX1tt7Ov5k8BBqUolc6l63rxPSHiS-BYzdKXSbIo5oVQbMhGZ3pkU8b1yIn_g1UTLFk2gEDy61jNQ_6kAPX-70xX9m5xV9oGva6NHpGb86NY9HOUa5Hi8Cr-ASNo5aTnHuXrOZsxoj0Dv86kF9ezGkeHe_xdfYYRKhmKV3XoYkueR3hLalrZK3JEaT4OjYtnkq9fRH-kGX-7OvRWSo3N1TD6z'
p171
asg41
NsbsI4
g1
(g66
g3
Ntp172
Rp173
(dp174
g27
(dp175
I0
I1
sI1
I2
ssg29
I4
sg30
(dp176
I0
S'Xk05k-oOGpdgkdf-3J99aJc-OjvkFAR4VxPHU3z9NUY='
p177
sI1
S'utDrdtEEBPupqz3uMEWO9f7eDDpPFtlSyqDo9bUO0LA='
p178
ssg34
g108
sg35
(lp179
S'gAAAAABbzrl9V4eCRKjVGAps1L3UUkLbMyDuSugMj-9BTs-9Y1xBEzDH3vnkZOm05TPAUpP_Sdow-Pu0fWMlEHcTzpl1e63gfLd4d9SKHkioJ9v7NG3htZh9Qus4nBSEE3dQpqxsxYE26OW0OnlXFtuxgbgkY8CGs9l-mEMn2cNCelwlhtlpip7gQSiDGChNHiB_vlv1ABsHUFOorVgjTip6EBg-4VVTRgsN3BM0MX2jAf01kIzUhOQQBgzooKqzgfeWvCD-JHN8'
p180
aS'gAAAAABbzrl9utCemOGXi3KVt8QzBO9fp9gP5f0_AZkKbNR5_0iIQXgXGJFQz7BNIBiQ6nUnicpSra59GrPGTT5WP_Z-P97QsgSZjOQ-KeA7-nig8bPw8J-7bFQMRoxo4dAGiJ7nz6J5_OmDMyg-LkFa8IoVg_MHe__Q6GxwWamyPzD6EVDsn-p0TSW50jmAgwPEGrB9qHUaOVPuwkBscWcH08OTi-KC_hLHWTyWLiX175DdHzqcXJRoRTqJMQY8j-6K3J3hq6WT'
p181
aS'gAAAAABbzrl9lPDBF7EOXurj4bKkssn282N9NB2T46_QjhNmYnX24RFwiwrjpLz-EwnnWzDPs-U36LacX_ifPMVmc6LIjb7uMpiP1MWvwW1isiq-80RSPqRhJtyH-wThkGVD1fZH_4ctoulYi0P5oXZ2iJX1H8ztqxrYGZwa4zFZ49hLhXpIQdWeaBnFb3eFADIu_i0z4Y-VBx2KmgZ-KygMLNm4015cOc4hFGaLNsLJN_NYT8wGZfLfPS_ks9_U71G_z05dVX6M'
p182
aS'gAAAAABbzrl9bOI843MF8ij8QxVDtFAXMoGauD-GeexFWatgbyxr8FqgkRvRMgQZzeAw1-FXLhLxrJYgSdaeTIkydf4rJUzi2j8Jh8crVsE43LV87WVxFXgtL2sHZkhyIbHB-cxzYPmlTD2tUcF2S2dEe5zEsQBXKamC1R3ZmqSwY_kFWPg-fl6TbVF0RIMFFJA3jhFvmPkeAsFiVM-InCWnVFvOEWeav_L8IbeA-wTBdrFtaziMificKcxoB3eEODdndXM6Qc7G'
p183
asg41
NsbsI5
g1
(g91
g3
Ntp184
Rp185
(dp186
g27
(dp187
I0
I3
sI1
I4
ssg29
I5
sg30
(lp188
S'[0]'
p189
aS'[1]'
p190
asg34
g108
sg35
(lp191
S'gAAAAABbzrl9meiH2SPdV601eMlviW9kskNyZSgSkGml_I8BP_wp5h98iiD5ob2MRLDA4ocHNaC4d0nOOL9-C2soLKzT9saVZY-zTEyTsQS1LPTZ_Hmzh2YogvC2viVEkQ3Xt_51-Cja3WkOqQS3JxG1wSBpfZnWNYQd572NMb9ZCmW9Brsg-l-S4m-w1q4HrRS-iGQZc5P7X89qR9g20ivT_T3sN5G9CA=='
p192
aS'gAAAAABbzrl9-Qvt0l-_gx3PpI9ljqPAyKkzz1lPdiooJW-O-ckp7148mr86bFBRl_27DSxoXnUmtGFvYl3mUaz9UR7vW0gLavP63QdOYL80Bk3piPzaAfmrjAJOaeHQlpLcdV3kD3Gq_l-Lw76H9Ugfd7RY8EzywTkJXgXYQ_J6hHRXvOv2SfuFfCVecLJ4-KUNsNKjH53_2Ms_zLX6_GJ2XQYDba0Uug=='
p193
aS'gAAAAABbzrl9VoSxgz7TAn5KKnfKLr-ZJloyy_Yk2dsuWRBE8rHVcthq-UyFBQGeYXMa1nJ8FY0kuhGQj1Wjub81DfIYOerosyCQvPEtO23OdrFZvtXmqCj-uvtuZtGZhWNzKdceTSmi2F9T2wz9Y4NUitfxSeptFfRQ2hCh2goU-V51-Ie7VS-tlTGaHHlLuTTuoFCH4E8HX_Kt-VpCPAtKFi4a2AjBGw=='
p194
aS'gAAAAABbzrl9kleri9chh_OmM3SYT8FDjvrdu_PlimfX-hrx9N4p4pwBJ3qx5lybgr6rPcIVCgD8cr1rCoGd7YM0h5J8E2VrcRBkDOsxrAljKd_8jm2PymdI7LpVWpUo_8mk2tcXaLTxykSNPem-FegpABiFU1TQBjVUsXN4TU7C5vixXPuOfuw2pEtyzozRZNtrkSF0w6e8wJ1Om0QfplLu-OA5zDnotw=='
p195
asg41
Nsbssg104
I4
sg105
(lp196
I5
asbag1
(g2
g3
Ntp197
Rp198
(dp199
g7
(lp200
(dp201
I0
S'14fsiIdfwdLfiQq9AH3xo_njMgENp6hnQBDgsEnCu0o='
p202
sI1
S'Bm5I33xAk2JptKOfe1AaBzWdw_Jwfd8NK_JuyMjW8bg='
p203
sa(dp204
I0
S'hf_6b8RBL2-d7YBeDTPB3CLf40Ym3ayMQ0W_gbkheCk='
p205
sI1
S'zmg-VYlij8Z8-Swz2-zQXKT65GBj8kgWXGMEt8_SyFc='
p206
sa(dp207
I0
S'h-HLUhZ2cVbjhSO80W0-dKr8RbF1IrusYtSNdKjal9Y='
p208
sI1
S'uNH2Sb1pUF47AKbAMqqcV8I_Rp_0VjFxdMGLVOoy1TU='
p209
sa(dp210
I0
S'UJpdqBr3bT2I9o5eZKS3-Itiw4DUBzvZiPtCC9xXQi0='
p211
sI1
S'zfX1VrpQcyEeG_Tzy9zVdNDKHrqFYrRXJt_PYeoxv48='
p212
sasg21
(dp213
I0
g1
(g23
g3
Ntp214
Rp215
(dp216
g27
(dp217
I0
I0
sI1
I1
ssg29
I0
sg30
(dp218
I0
S'ocbv_Mx-TDpOSTNAYxTzTeRKytibxpsBRoi91uU4cgs='
p219
sI1
S'aVxIDsfTO0yjbok0XoNVIgZe1wsOHuzTOkWwEdmZwak='
p220
ssg34
g198
sg35
(lp221
S'gAAAAABbzrl9fnx09e85q-2HKJXvevO8C4yR9RVGELlsVD42YHJxpCJzwKgMS7u9_gJfuLTtJ7zxa0nxboimhhrQSp2eUu2Lsoxm9g1M8km9FvfkILfGvT3T4ZGMFYnVxjP8qfWtUJnaJUZjFJWGc0I5aflT2ZZ6Fj_kQi5A7Dg2dRdLYSJC9S30Km3o1sVszDDTdPwdlD_qF7VK4qv2g9cyiMoR91iQdJiBwarDxZJpRPuSarkqd1d07TF2w4sPH8b0vE8C1xp4'
p222
aS'gAAAAABbzrl9wyJf_t0UmbIIyRtmSSQPV3VtczK3cJGWWba-cMfx7TMaD-DNt5EH133Rbp084MP4wkF8usuYbnW1G-TiqxTRhXNW1UuxZTne8zooIPQ19NtOTk3eT0ebaKPJlZIDj-d2m4gDs6NLfPBxYRBz_uS5QIP_-I_vgBr12y95H15AsuWDkgk-n0hXP-srC6_F7ro8_-nNbvtFgtsYfBLFeSzpqdRbf_DcKYXnJco49t5YvmT1ssPlOvj4ssnyw6k1uFjd'
p223
aS'gAAAAABbzrl9asoK7bYkVSL2zzVOUg6JczoC9VhYFjbjoMOt4I2PnJ_gon6w7qarDIvVgxOwaSioq052mgVgcbAEUzxbPd_wOnu1UOI1Fn7Kq3fCBj76np9FQlgkBKhXDd7Y1LmH7sYGXvqIqvDQ-ze39VwZpO_rhftwHX_j-WUqRWIu_mQydKoGiFPMc5Yza432OwpgoviR9Kh_rhngChbrKmkUFduzgPbX6cr4PDZYiv8fVcjbP2vNHmRCC83FWMx2Qph6QT3O'
p224
aS'gAAAAABbzrl9Y6J8UfeA_bdBZ-luwUEakcFbLwTcgiCl6HDg9XLpn4TVE3F9Y6ESiCQnTqsvNdf-IE0nfrm_l1kXnISBv0TaXYUCvU-vZJegIiimYTBGUVFdqSCD5MD4Lut4kckpyqFZLeHHI6HFK9ZkaJxZkqG0iENaOgajFUMDvAjzSLhVHNveffbqMbtFtkiNmH5Lpc9oQrbiNg2_3jHUUKxH6UffJyEVPUs44UEVnk88vkutj-GF1r4cxygB80-PvhfEKH1B'
p225
asg41
NsbsI1
g1
(g23
g3
Ntp226
Rp227
(dp228
g27
(dp229
I0
I2
sI1
I3
ssg29
I1
sg30
(dp230
I0
S'FnsczjXy1QSUaSNagMVPiaFhHMPzr2AoKu4p3Fg-voY='
p231
sI1
S'IfnUcS5aSZ6pvB0bH9mxBau-7wgl7PeDkh1nNau_2IY='
p232
ssg34
g198
sg35
(lp233
S'gAAAAABbzrl9LiCoW2yjcXdSm39WxTjSK-LKyaGa5kNRLtFQgaCT-2H6KEbgb82lX8MlH-1RJM4v-RbRrlzFICBuwCgOQI76vf8KZZ7D7Lj5io43LhwQql-nmbBo1utnqerE-7KaCdyUB0hSBYr_4ZJ1tXg5KDT_SKmwUulgvH8o1hw4LcRVhO3u8J87twRdboNFVaTEklHTrzCCCUc4nwOm6G_aEp2_KOdAOrRcsK2SdtQ46cxs5NU64NXR6HSxhl26lAElpSe6'
p234
aS'gAAAAABbzrl9OTAZN5qyapy2F_uaMt9dyRYY3WmSr-fsij4d8sppHbNPyCRxIqrqxoyZJ5oiIYbrVs_GFAOID6sJpDSmQJm3_2byJf1nQdSHG1EqDCC-Zzt3HipaDTAHl1Bvo1o90PMfI_CNr_qVc8iTFmhckuTWDYURjBVM8HgvWsf9VQ4ElfQehiia6GJ2ceRif2EZPRLpGytfhWcXfetewL6_zH9ttNnX3y2Tpi_LfsVRej-2IbYtcdtngMewtd3K5yi9o8Ta'
p235
aS'gAAAAABbzrl9tCkzqOn0DyywEsbPX6lHaD2diGutj7Vsm_O3j_M2OxxjN-2VMuyWfu0_wKbnEoNb89B9eQdoW1B4mzQzryaHDr9ZXwQ1ndV5Rl6gJUNHOZuIzMF_EatzW510YsgfDIOcTi8-Ak9KapR64viSiX6wBEy0MUlJnokmolUfTJmPKP_as4dTSK77YUWOd2kz30Tbcxt1wd8yxEXGgQbBIoUP8bDhC1uHTSN9YkZr3hGqJfED31tih2ZJtr4O1Lkz6DUX'
p236
aS'gAAAAABbzrl9210k76XAXzbGwDrZeIYg77Yq6ogzKtqABPeysiBMmnHUru8q9PPtOtlfYMq5FmVfjX0-WOe6a1mlYHFFsSpo6TAkk1PoCcsmcExZ1iJmZnUPg9tHx9Hlpn29GmIXOui0-R8ezLOA1ZizIJvokANhDKGwgRA6nkSoHZiY8UZYs2j-6tP2R4DVhpqu-ad62PUkRI5r3QyZjJZT1YKR4n3StSybuNOKmsx0gGVqsOLhAY4DJ3Yvxoh2haZmQo8daoOP'
p237
asg41
NsbsI2
g1
(g23
g3
Ntp238
Rp239
(dp240
g27
(dp241
I0
I0
sI1
I3
ssg29
I2
sg30
(dp242
I0
S'JFsVvDp0TnVWAiNnEQM3lzJXOIPapuiwwP1qvluNOv4='
p243
sI1
S'MptZgjCtEWJV5ODmUaEfxSnyb6-lEUoNmGy2Ggl-K4U='
p244
ssg34
g198
sg35
(lp245
S'gAAAAABbzrl9bhorn_1KyAR5S5zHnqOcuM84hAwvsxo-MWU3bDTf20P1reyckpq4CEeaH8i_sxj6wxRLHlim6AfQRekeSOgpoMUYziTrkGPi-DFtFAA4KfrkGRTrwpgWozC3huyK0q0oEVKxPb2DBpVL_BRC4pivRZb4dOhCFoBCJysz8Sl22NYAsSmC_IRU5nTJHktRp3yr-yB_fiFtOBZ91PaQm4IJRQLw8Wvw7R9QYF3bhvVoqGyBdqdHuGS7kVuPsFRos8jx'
p246
aS'gAAAAABbzrl91chrgngNpMDI1CuWrSic1ItfEjCZhmuBHor5IlFULhodYnU0kgivylCtO0ArwQveOMEIQR0dd0EUue165S-5TMdW0sDZ5eVyP8BVie4YKsdRvjSJiGB7-yjRF8U8vxq0Vkg8JT7ZvR0nLNoTnbPZrOLp8P8bSn8L5HJpbygXVh7zR-FBGO46hz-wPiTTiHQWsvnylqklbby22nvANxVydxnTnz5Dq6Gw-Za4RvH9s4u5VlXBmJNizdDTKVvOQ7Er'
p247
aS'gAAAAABbzrl9P0r5xMoHo1md0Kja_E3HmTdsrgvtBn8d2Xfb9C1IalUjNbZ03JI-iahXdkWv0UvpXhr0B9V3sfLTM7OVjfPGOpSl61HtNBWaKS548EmG7CjEWx9H7RefU8oRgJ5_s-u6cXISQBi0Z86GzvPvHn8mSw7YINM_SBLgHPIuYwfHg0ba8mAtdzaK7amGVpdXi0eiaOwdGFV-61EXPTRuBEMvNclSYidvidaw61zz2TF2lS2Jt9ivI_nZNn5CtKF1st_V'
p248
aS'gAAAAABbzrl9q97DmjnJRCydEOTtKssx_LPkXfckBoIM4dz21bhLtqyaJtSbmCrYETy1FiXmK_stjsqBbJFZdPgPqrDqmcpXk9ni1qDgAPz9PCodsigM64Egl7JIx4xcLO77XspyWbNWCpnrDVI1FEBrNsxgwqjFOrG_6bvPURZFKs6BiXLSpHMfgECFuPml9hCM2qmW-9ki50puJdynewOdUsO2RS0kpJceEbUalHHqmHuiEy7Mg7p-iINrQKQBhnsaetvEA38T'
p249
asg41
NsbsI3
g1
(g66
g3
Ntp250
Rp251
(dp252
g27
(dp253
I0
I0
sI1
I1
ssg29
I3
sg30
(dp254
I0
S'yT8njPu2kzjNz7eO1G4lpatBdvyWaa_U61pRfQIy8VE='
p255
sI1
S'uAfqHnoy_z6sN4z3d9j_0YV8nFQhQ2QOvNEI87Cyp38='
p256
ssg34
g198
sg35
(lp257
S'gAAAAABbzrl99Biuf3GVFaBAanBMmmgqqUm3K9XQLwh8stOTu9SBDP0-5-mw-kxlMnixNdKA1qOob4AS0kJ5MiZKkHaQ8TIzZj4KNf8qq0jLqLMdn5hr_EGprPHeYlu4hJNtUdbG1Bqe2GzuFitY5StTRz0fTXg0YK5-d7E8K7AIjyIrGDj8M29xElrnJsSJYBLJDyhAS71kphl6QIkWFUudc2oATe5Rfaca8rSKqJcBs3uy71_ptw-W1jtBleauqMTBv2D13DJ6'
p258
aS'gAAAAABbzrl9hmnzGfNg5UP7qJQKyF_OnSJou_2nMSZ8b9CWLUHmsW4DLb50ZOps8nSXDMWR9rg8CNv43Uv_i1lls6pw13VcR9AgO0Y4cIci0vijNaej_Z-qbJMB70utzGuUrOg8d8nHVpd3rDMPDsrf3RdiDr8SbG6SW03EJFLVcQ1HFJ_pSXIgrZdGgrhDs8VNIDZ7vRpoC3di7iS5t3wMTpVTIGXEWJdBHG0ky3XE_4EeDIDh5ciZnrzrSTyNxJObPyVMqPsj'
p259
aS'gAAAAABbzrl9sclmgTEtdPJ0oC8SOROFHE53A8CjObwygK31cmsjAkSVvm1-vszqUE5mEAN3HwSWP06fFTVxu26vICwWrr3WlyfLUkCi8doDe1_-R4t9BKI9I9zoeqNtkZfy2zrdJK5hc94AUFsJ8RI4PXqoMHKRcKDnZSjc8grVyIEpbm7_HZuvkbBrH1zTXlhUuizmgVblaTJSCQsbD6RqaMvKupvMA68HGP3MHmeKpMTgy9156sFsNyfde89kbSuW7PjJ5cj4'
p260
aS'gAAAAABbzrl9QbeAPmMS9O7cNBrHRg0hGJWAtEyKWqhhjFJGY7dVGfkyUk-fRupzORMUAKWBDl7fN8G0Y7kknnpKDx1IIAYYeEC5ng74_tIGC6mvEXFPkYMBr-8OZM3qE4QwVaq7nmAyusgrShkSqs4-MqxDBLFhqJ33_YYCof1Jf22gW4E5SQswIzBScRc7lKzuGM8Y6wp-HnA831FLzyp6A7OSkWNTRINR46Zhy8rmMr-wjc6wDafiSqHbEgqAiNfFEx5RN3T_'
p261
asg41
NsbsI4
g1
(g66
g3
Ntp262
Rp263
(dp264
g27
(dp265
I0
I1
sI1
I2
ssg29
I4
sg30
(dp266
I0
S'kuLVovSn2iQ6ATHdF8vGjSqYrVgnpB-1GhWMiae8jjg='
p267
sI1
S'P4E77CPxKcyiJrtVsXwIwIiOEUBCffekWESh-ChOToo='
p268
ssg34
g198
sg35
(lp269
S'gAAAAABbzrl9mKhtqX5FOMhvtFsAzO_TKbeTyc516CTZrI0d49-VkcEHjFqIi6rA7aC1whcr_5lEDhwfi_OYXkj3F6iwRsWkSiqfL3ue21mKcpiRqHQwMr1opKhKwpJ6z97natnebitnKEzF-mRxmUWVkId43SHuW88AF2oUOEXlFmlqGmfigq3t_xSrgXTbaI16I7Zu_Tsgcv_pqVNv4YF4AZbcg2iOYIcqAGOQ8ffhguocA7TX6DJcUq7uQk-E6iXEsvbaIk90'
p270
aS'gAAAAABbzrl9akr3FhxXt1KBtFO53_BktovaIZ6hQIpGKOnuMP0wxrkhgLADBzzUjdEHFT_IB2SBYNWg25gQgrneTqrxEQDXCrIkXaUd0cvsNCqIuaA96-rX3T1-k-otizjjbAptfY9fgDI40lc6F7spurSsNhdF5UnT9OQKjCbLYZB5MIsuShOUQCd6xCDokzyyJjZTlYVfBq-MbEZ1yQzBnoW1siFtbvEazQbeVc4VfG4zmFI6yUnk37HN3E-l5MbV_V_r8G4W'
p271
aS'gAAAAABbzrl9zpB4NrU8BQVr_vLK3cIFNjDok9JADFIzZeMR-R0FbV3JyqAovXfTojPZSw3AT_TcVdX51-S_3eRjje9lpuRtjtMS7GjAjC888CIitrHVNnMFMd7WtBF8xFGbpMqtNh0qOfbhveJBHwLErwn0C6AVPXbtpsFiLZhNRIpv5fvF8JEMKf1agGdRjIujOYZv4fyiU1tEpdhm3cy3zqA3IgxANbsyxqZFct0trUMqQrMsBQJNAHwW1P1Kl7kMQFhylwWN'
p272
aS'gAAAAABbzrl9znzc5RhNJo-gnSva6w_broRdZxtqpRSy0CId28u7ARcC9kJrdMiQGRxnKHSmybt6Ss-0DaXgadTYYNhJnkSjqq6_XyOp22c8s6DN9VgBsoqpVIjkiEkc6xpV1GGsluAmUKv3zLB-YCHqaL-_5yL9uzHXkS3iKlgsASn9fjUKOJkj6iYEoLYd7hex0f714QVC1KvpghNVRaFE4aui9aeUItt-Nbnpp_ENqSPTWUEqju0D-Qy4uI73jpGhnNz4QBpz'
p273
asg41
NsbsI5
g1
(g91
g3
Ntp274
Rp275
(dp276
g27
(dp277
I0
I3
sI1
I4
ssg29
I5
sg30
(lp278
S'[0]'
p279
aS'[1]'
p280
asg34
g198
sg35
(lp281
S'gAAAAABbzrl9amybxBZ3SKWHsSphKK86-x3KLqHAtnQB8iI92aBmIaytcPgPy6cZ84W9JhBlYJxpiF4YJitwDfpHk8tUqQEbghhj0G840t5_VVRGmdDy-zUImNBpk6nVWJR34ZZxQ9ewL1UP-pI27qTmDV-ocKUFVIC4YtXtacBJlCn1TxfiH68iRbfn1O9IeBdyGVEWX8_AbkpuBSgL1QqL2Q46piLvcw=='
p282
aS'gAAAAABbzrl9ttThsTkiQNlMlWaXYvrsK7rN6VJOvPY9n3Bd5u0OlJ9k7z2o9ZSKMWHbsDzSAIWWYq0j0jDCKa7cXsykALYeldKOYXCMYPwrw7LluQ4XbKL2KdysJ8w6-jE-_StlnNapr-IaQLgmhIVqpsm3WmqpYQhUXmkWBTZmz_KX8jGAnnHS3L5FzkU-45SgBDty2POyPyBp2juWke_f30aTOunedg=='
p283
aS'gAAAAABbzrl9oZ1SqDeyRC3ugTH0WyC36Oi6tRovlZBU62BKQbWLRQ9yY9dC84aIgPiUgUL5bhm_oQzsjDhbCoZEGrPK9clSaA_ONw9A-O3NlmnvCuALb0qOI5QNkP6o1hYPf8z1PiWdSQ2VgB8FoVlQlLwTJPY4kwwbYKzwRQBwqScTQrsFvCPHqQ7sIQ5JhWEGhxpVEHDNl_TfRrIiF175ou2jR_aVRQ=='
p284
aS'gAAAAABbzrl9G6HGYOIwL1co7w44LbdU5WZSlVb8uCa9JLFXOj8qudyZ45hkiVAdxNsHwvMXXtIrjk3WKxmGVVh405dSo8fbkAn8OKIm2P8Szx7M1jDEXn8pRCLtcvs-_-gTE2-pnkrC9cukofdonRWd5aooMcl2Ikx9iDpMVurLC0vhaOHTrUMrjnAldPB2eqvieB8D-Ap-bOowLJdnXKyddS3Ezbkcew=='
p285
asg41
Nsbssg104
I4
sg105
(lp286
I5
asbag1
(g2
g3
Ntp287
Rp288
(dp289
g7
(lp290
(dp291
I0
S'B9DOhQt-WQWg2f1uA5xPTL5P-OvI-fkUH-X9Ato5eG0='
p292
sI1
S'kNymJrhfnZiKzJCR7NTVJjJQ1g2Pa4e-nS8VB8RfM8c='
p293
sa(dp294
I0
S'NRduYTz8y4BdtA5HyNnoB1BX4W9w9T6egEW2bezgTBU='
p295
sI1
S'EXf1Res2GgwUo6XlHr2TGpsPbtolUNumLM0bdcgVBis='
p296
sa(dp297
I0
S'7W5bzOsvnPLnaQJJT9WcYTBmNH-5R0C3b9E0AnR1upI='
p298
sI1
S'e_tdqwSFTSwyYjPR9aj1DWG5iI2G7ccvl5U8p-Mmc0c='
p299
sa(dp300
I0
S'1Z3ALgfqaKPfqNE5feVWBmtOeolHTwT93vejcA1Cj5I='
p301
sI1
S'JTNfpaTOfwwGkTRK725KDrVrGURBYKeIaeaNYrbuaDE='
p302
sasg21
(dp303
I0
g1
(g23
g3
Ntp304
Rp305
(dp306
g27
(dp307
I0
I0
sI1
I1
ssg29
I0
sg30
(dp308
I0
S'mgCN09AI7yCY0g--Wju8QwbYA7_1_q55ikGvlRER0-w='
p309
sI1
S'HZdRykYmJxDpJaMsCAzdTl-Sf7l4QmonF-oYl3V30BQ='
p310
ssg34
g288
sg35
(lp311
S'gAAAAABbzrl90dII0TMhFT4ua-VXQNN2P8XtdQiLG25tKEMk3PrLGm5F5-iYavy1wuUN95ZbxkXI4-XtTU5nChhsHEkxMLJeActeGpJAnOWzBR4yRVg56AZ-s5ot8mUCM1SiV8lTeS7yA6bjqlXP5n0xJfbh27LmuxCdUSILbD_1ej4TM7OtjC21cQvVC_aM49kFbAv6W8Z3mqF3vqT7n0eD9YzuMFNJSBEhT0G5E9FNFh6l3LrQ5oh7Ao7EtfZDKV_Ym-0uvVYf'
p312
aS'gAAAAABbzrl97489cxs68kiV4Fbpq4Sc-85MHtYyNcTejQ55UGMpqqpX8pOriIBR3ixjvJnO-Dnlm8clVkZUey-txV7n7tQTy4rVFqHaN6zyddTT6hjL66Xpe_vRcd9fWtlsa8dji9IsyqP5rTOfnbzJMu7VYi4lN_snVBT31QgHxN6XyD9peEFKG2KHIdvuQgH1fDpJRYC4k01gwX4aSXs_ugWHw5ACcvdzRfrwl6R26Unapnk2Ga3h9e6mDPBstzuSfeGZuwj5'
p313
aS'gAAAAABbzrl93hM1hdp9IHdHg78gVqAueSoEj20Kvkshisu7hELZTxT2AaLhQhrJeda9pJX7x3jdO4mlNWENka7NZchbxZw7LGhlMfnuqw4w9eYT1AKvhehDqdkWfmO7RF3zdVAgW3vkdALv9BdVAJV4TNXFfN0bgp2DPOX3_9_IIjA2eHKcc9mtjDb_EjIN3W8eneBGSLDauBmhCxF9DcxF7rDL5iKCGsaMQRnnlBEflvoiLpKj7WBxNUcWrXTKwxT7YY_EOOMM'
p314
aS'gAAAAABbzrl9sBtyvrIFF2wilWbSfpzHaXaJ-QzeaGHor_AAyEEHZ5p0I_TkBVXyijMuqQhXq9TLX1SjgLdT8FcW2XIxaxoiHZQUbjm8RS9d88Laq9CP0429EzPqcPHxyu7Xwd7UYI4e5S5naV-Va7362GueaLtPmsKkW9d25mH3LkSf_HJtpuFZfW_sXWD9Ygw81DU2wMyQvjLd0ozxNquiVkdmrgK2vuSJ_jdTsx1JhaYtTXQwtYievvti2ozyGfx98wXaYeMF'
p315
asg41
NsbsI1
g1
(g23
g3
Ntp316
Rp317
(dp318
g27
(dp319
I0
I2
sI1
I3
ssg29
I1
sg30
(dp320
I0
S'h-EQS1mgb7IaARG3GHbXTq0FTYWv5plwC6Hzyq10K7U='
p321
sI1
S'7CVEWdJC-IQqO28J0c6e9I8zuJ9ZBxPU_neWVM42t9Y='
p322
ssg34
g288
sg35
(lp323
S'gAAAAABbzrl94H20tUWP8rVP6yw-bFjjlIO16dC5UFUinkjdOLARcDYOkQuY9klOeF3rnx2uzhpeYGFXUjQvnPlZSVn3_xd_Ju_ROW-EXl9H62sUpuzQBCxfTRXw3VnIuj55qouZEZEt_eQ_Cb-epmYHljX4Jv_crFBsr6IVS1hcIjC8gAB63I3QYFtfZGAk4_TXDotVV-NQRpvD_NuKmjpT5E-WEdPlbi3prKEO1l6T4cHO5VP4NXElSC23JOxNdJpYISI1XRp7'
p324
aS'gAAAAABbzrl9t-v1hBXTVNyDlboPOjtpXsccFlmYjy3HyEeTDXgbIEit1tOk_j7jNNWkjrod2ApfisiY7EJFJB-AgXcy6oLS7aCz_-C4ojuVby4RyO5D9XMlr1oDiD5ZmpkgiYrA9CSnoL7XPIxUMe3ylm_x-CI-gy0X1Hz-aOCFXJ2QGBPb-ver-G690_l_HAW0MZDkV4j2IooOwOeJFWyuXf64psdOC9g8mNkxU6IzomYiYFvYz0lj2ygX-kEwz7QSkHSw1O0L'
p325
aS'gAAAAABbzrl9iiQbsrdFJpJnkXzwHn3dnZd3eHbJJDZCj_TNfsrJ3knaI4X52Cn7Jn3blNJ8Wr2EycxHp6PMR1EtqjoaIJTrwILkpwM7IImpq5BV9or0TlKzX3L9cujCKoDUgH7cK9Yn1EW5Ga11AFI8LB9PEYOrzGBP4Q3T_qpKiFfbVSM_owXPYZK0oQCkfMj7XbFMK_g0fCHoW2mYG_JotsxQUNiZ8Ty6jUDxUasmMML1lzuNd3YhkGOh-W1YgZ2ipSY8ZAXO'
p326
aS'gAAAAABbzrl9tuFP6gCdpT_BlVSs1Z_2lFXULb-FAO78YUAQMuUTtuhFVc8fy6oWzbUPih8kKeoT0SgmtoqEdOuW-VxOL6YbmUzWo55HHWsWIkiHB-kZ6McSDMsky1KazY61unj6QTVMfVCoqUNH8HJnmPi_CP6p7ezOIavaKA8LiewJFKkVuqsZCeMZgvpyPnzUKydw50VdEAIZvUo2CIhbl8I5whzUscWzdfgozQcvoXrN9PTvqkDMQIk9nKIn3cf3gUp9GWYQ'
p327
asg41
NsbsI2
g1
(g23
g3
Ntp328
Rp329
(dp330
g27
(dp331
I0
I0
sI1
I3
ssg29
I2
sg30
(dp332
I0
S'3eBm-CtrWp9V3tW5wENCk_1GijtETL0bc73XiaqkTgc='
p333
sI1
S'9npmBlFqG1y5X8GNtumCg61OJj0kfzJ8QCL9tOXOks8='
p334
ssg34
g288
sg35
(lp335
S'gAAAAABbzrl9dlk4p-Nk0WYPsd5L_X8U8cnbY13OQGRmh6pOOpHLpMRyM1gIOKjLKo3BZXKSMFPpmYsQu4ZBRYycdBKJB-t3vESfyeZykSlYReleTJrZTHFxxvbls6QtFBF226NXzS2B9RUSCHDpqZPGhu6nYqMig7bYiR5g9J1zf0-dDm9nfVlRVbWO_5g32oY3h_VM6MEH_4twZ1U34uYI_vW-MdKTwrC0L-bz6o7Yd_26x7D4YoPNX7tB8Uxv5kmEAXcvpj2x'
p336
aS'gAAAAABbzrl9owBMXNo2_wBxrvshzETj5LtUDudUKopW6NpRZPxyqwLWcqfFll8zQchMRny2IbbTW5Qlkv1Y9nx9fpJD476WAPC7gdqYRdZpUYlqNF2p-d9fSe24vs005pq3gvG7hsC0wI7ODlSuTpFobNiItMrhUTtj-KwApbmwJAn1W6cjaj-CsnlmjGb832XiBpTMcSpCKUuYdlBCV03znzGc9Y715mlBLSQ2Qlib76U21DD9J43Yg_YYZZX59asc6zh1zznx'
p337
aS'gAAAAABbzrl9SatWKmnQfMiot3xZOd3EWATLqBrIvpCxAoFfF71kiv8cDKz820oZptwVKDdvRHLr7R8WE18ZbBXmHBco8FSksYa3AihmWOtxS2q4FAMbsGpHkon3ZxvdF5becTWVB5QOcog8JSVY_d-gWN5HVTKvVVuPi5KfkVGZJoeexJi8T0bqkzC3gGC_P5KW_W8t00U3PIwPGLf4Jedd7kTbwI2pVPBTNyqw40tMwhrf2yYLcnYduIfjQoB46fbKdwj0KF_a'
p338
aS'gAAAAABbzrl9ikOcPEvalUz-gMdfB8WXXD2ls0S5SVlEjmvDfyqjEovmwhmdE_BzNSIYg7uRwv6gtuKVfL8Aw82RwKsijV6021edpBYGRTLQxiDEcprboh1nWzA1FMWFFpDs_7s_N8Pvj2b23UbFItVPg9hnn8UuCU9YsiYXRU0R3jMl9-qyPc9eXGLZ9il0tjQMm0QvtxQ1LVO6uBVr604a2Y6iTi964rx1pl_1jJlXhYoTxPdF7Dz_EUOuknHe6YUvlyzsiRBE'
p339
asg41
NsbsI3
g1
(g66
g3
Ntp340
Rp341
(dp342
g27
(dp343
I0
I0
sI1
I1
ssg29
I3
sg30
(dp344
I0
S'-J6HJ-C78IGK4wkkHYXl8WHduNpraMoyHGHSzAjU13o='
p345
sI1
S'c9l0Q8mP3aqqw2Mw9Lmh0jOZtvn7HNuFTLP4NARdOtc='
p346
ssg34
g288
sg35
(lp347
S'gAAAAABbzrl9HZ-2koygS413cHC5CNTUBgZ770JSHs6woMoRrwN9eEnI2oCYB4-MXGf8fmkj3yQc6mkupKz9LfTEVm6wF2_Kr_dg8LtLj5tyUlosZ5NWkZpdL_ktExXtDCUkE-6H_zUttQLIt34Zww9t4Ct4p7G1MjtboKG0klrWGb4JYdIHmH_d0TmyBXKXXszv5lUT9brYw2yl-9duz_z4_51kkxiL9mxPbA10PT2dcDARcY3n2dI3r3c8UlnUQMUCQLRZKANm'
p348
aS'gAAAAABbzrl9FM3SKlsC7-tCFKcCxQZxihnjWAICRQrjAuw4t45rM7gujjwBELZnFSIAoC7LH0gtp8y6vlKxD_0qQRLSGscJFPDgX2KcyH2gliDmLgs70U-q2rx0DRY3WaJ2HiM-ctSzIF3Jx3PRvVPNPKRabCzNZC-ObTp3eNEq6m_aFe4B3eNHlag8pgm5PQvYw_0YselNjC4lE5Orssygc4ZKLP5p5PKwcOfWPL2rSjwxN5Cu6UAdh9cZ7dO-zi-JZp1c3hlY'
p349
aS'gAAAAABbzrl9R0tLbeOLgnMEAV2uXjRpj4nH7p-MqulWR8qX8Dmlc-GUlaY-xOXTYPkWJCDnmBglewb-QyNiqINyaA-9fty88Y_tQE4BEZc42rtNqy65A6PyrR1N2PEYJJJxPAt9eXLvgyxI4MD2zD5TPRgvxdN0zBkaNmLnNy1vpdTkxe6-lBhSVBJ-L7lDHMyTVW90C-8aD__1KkCCUwyepOFp_rZhkH4LOmGyNuwj5Z5WEdSkwQclmGGSfW59lB1m0sKlowCI'
p350
aS'gAAAAABbzrl9qiMuDOonozgAWbCIQuPypR5LbO4UDlbcTbqR-ilAdc1os57Nk0Ci2vrGSTS7OmnmhF1tw5v3wXzD3sIcnGlUSw_8nFyUXy9OVHQV1ma8ISRKJLD64-k7wZ6h1QwI7uUR3CCGGs7DuLTTnL2mNsMPF-4HIKaZUbHKIFRzIT6YQeJ0pfgMqFZVVm_gVA9ZCu4D4N5HuPYOL2xhJOSoAVaBFOHRVcAYPisYaKuYjmja7SFqle43ukXkaGe_uPVqUpCp'
p351
asg41
NsbsI4
g1
(g66
g3
Ntp352
Rp353
(dp354
g27
(dp355
I0
I1
sI1
I2
ssg29
I4
sg30
(dp356
I0
S'o_AZdAxQxRacR1yshWfNFWiN2uW8UNv4FpswJiTPt2c='
p357
sI1
S'a1YB4aKIZoIOmcl7MHYbcoSBk3qdDKT2TBWRjsfSxAI='
p358
ssg34
g288
sg35
(lp359
S'gAAAAABbzrl92ealUzX_gU-n4-UFzhv8dp_RPDkvNBkcCzacZ-499SuV-qzt1GxkBvHJQVZZgIvtIH3npanB6lNZ2djf3fFF8hBCXle7NnfBE0dpm6OOYA94fqizHFz9kbYAX_c9hWdtkmqvXXiTz9HUN4KSJry8RiVVSjReQrXzZLMyNLUOSIZ9UW0wse1IoIt3spM3xB-Hy1hiR9ii3QHVz-XPmQvr4ss06Bj7Q7WFLKlPMavNMj0DCnKeX7V34_VDvh4vspfJ'
p360
aS'gAAAAABbzrl9BbkoGi8J7h75AKA9Gu3L8ZvPK_bpkQHZO0rqc84hZrpxkjnzb4JDr9iPLfIHnlhtEXxFDX0GXYahoPCWySai1UpfIo9Wa7eVtopzU5-uD5uq7eJJEAHWXXlFtwexG-TNfHx5uRiUsYywLBmIg8y4QTjXVuib-OTOBYZdMa8RxJk9nfCt5-SsBBPvH6rN18MKRU-DMw1ko8Xgej2IKokiZus89t7DNYqj5-_IpgxxhFP06yTsKr0JzVElyWGtNpe2'
p361
aS'gAAAAABbzrl9S0WQyn8ztFigLT0Yk7wzx-O4q2861sZTbFgTd1snwPOk-2iHLmSGPDnQXkAx-t_IZ1yb9pmzrkL4hSMrc_MWMamxf2VeO_yQgvK0n85TLl_M_ScLIxJKnYRg9ca4eM2ujfHqg_9CeoRYQuyqHIQgkg7Sk7LeWtvLCfX106hAG2Yw1ithY7zqt1LtTYuOP7xRIVrgpfx3BYpXLV0himBb_f-2moEsqqe6950E3lSP3aBfQxlH3lwJ4ilOZqQqsv1C'
p362
aS'gAAAAABbzrl9yKadPCM3sWndIiCH7X3KWnzNYe5EmUjcsQPrqsoTc_gZNs-C2yxyGQZ-ogRUv6idf6-7mFno7ejmwB5KiilG2EuR-0Hw2yag3V2E5B6fGBHYYJyZLrfGtRSRN0uM31M4PxDVclgbbhUUcfa-IxdcbbadKtLe6KI8TO9TR7dFrMsSXYLp-G002kPcDqT2Ot2zd4fl3BOtjZ0KyHzvSPIU2JGu4S7QGUlEgmfmA5LG5VxemBNfg7fZlMuf99gIndHN'
p363
asg41
NsbsI5
g1
(g91
g3
Ntp364
Rp365
(dp366
g27
(dp367
I0
I3
sI1
I4
ssg29
I5
sg30
(lp368
S'[0]'
p369
aS'[1]'
p370
asg34
g288
sg35
(lp371
S'gAAAAABbzrl92uM18usBpzjI-iYpab5kJSpKgf6l8keQL5ZOb7emY1i9J8uqRoVzHNKEMNHfx8UExuN6gsBkhWjVakZHRGhSUJXtS4kYaDFDAM5QLMT6sokihrl57mvRcuSXjfq0AL8ZOLDB6XpDj3tvuwgdo3ROwP9dV0oEoO30UUYPeyDSrdTqNkKzkc7sbVCglGz1CBwzIRIv7jcBOtBKKGmtqzjgKg=='
p372
aS'gAAAAABbzrl9IzYoef3eYM_jDaIxMSdnHSf1j6BSADc4WY6EEggFHKjXqAavIO9wH9pcZK5LZ4FODoMChGC_T6HmR6EIdmManH--i4cmHHrpgds9xdC4hfl48FYNWnnL8CMT7QSQhffvH5l03u-7sIf-uVvcDWvFQmqpOoOUv_tPRvCIt2qrYl8wsA9zhOTZSRl1by7XeAIzh1lpGH0aam_obbsAukLmQQ=='
p373
aS'gAAAAABbzrl9AVmoYl2tBwP2cgFZRYr644eVc0FxP57fGZvy_canwsK5zhR1IvFv2YeR-uJp6N7aEkgPS1DFjLQb3tJLTSUrDdDLTmBOQyxiWVWHBR9dRi0zzCtGqHKJ40kqX1ECWwjZg4enhyju44xASiapuKOHzDsU4TMStZN7WD0InFgOo2XrQ01dTmctqrehCNRgtFWmV0UmQc1--Dkze4VcpNWVGQ=='
p374
aS'gAAAAABbzrl9k2l4FH1MayWz68NaHjb2A_5cOMTkqoSVw8-QsxjRjP-0UlHhuWCmProz_78dpZyMJyeOnQrHON2gd_J5DRoRKmHnE22ybK18SjP5TI0lVhQcxXbie9nd-wgMN-ZqFBn7X9nvQvN65Jf91m15uValPwVS7zBf8mtURPp24XyO0JVFYhsiUbw35UAYeTm6NUgqUfa9gbtX_X7Wu3sgSfBPvg=='
p375
asg41
Nsbssg104
I4
sg105
(lp376
I5
asbag1
(g2
g3
Ntp377
Rp378
(dp379
g7
(lp380
(dp381
I0
S'xnh0n1q0eufSxKLA1rVQVSda1NR83cJIIPkp30wCxvk='
p382
sI1
S'AZVu8ogoOhTQMPAvG-h62onn0jAYaihyaMUXlh-cxbQ='
p383
sa(dp384
I0
S'dDYDowratewB2fJG-uE22WNWbsuSxK-6qZabY6r_4D4='
p385
sI1
S'exG-YG_ApcBh34PAcoEloYElN_m0-KpMCB-9pecdjrU='
p386
sa(dp387
I0
S'Dj88OnePleYX9DfHxWjm-Yaw3HH-9j2xgFnbm0jdzq8='
p388
sI1
S'VAdZZph4vz9LD1tQ3Rp_QQk573yqoOf_FjxFBHFSLzI='
p389
sa(dp390
I0
S'jo93VgQgIMdfiHPpewrZHE5Rb99VR1MmBsN3vHNtlnc='
p391
sI1
S'_o211oF3KNHQC1MsegArrOaTpdqP89twsU3vlmSPeWA='
p392
sasg21
(dp393
I0
g1
(g23
g3
Ntp394
Rp395
(dp396
g27
(dp397
I0
I0
sI1
I1
ssg29
I0
sg30
(dp398
I0
S'uKvKSUFod8GjP9fHaDI1ZmRPuLA3o87jSgx47gShOgY='
p399
sI1
S'brSRuyrsSaMEVZXXidYj2VT7BIPaZs1E2KPR8ZYXz-0='
p400
ssg34
g378
sg35
(lp401
S'gAAAAABbzrl9i63HNltmuQyDlIy5-pMoopIov63MoHkpS1qGteCDVvV0fCbI0UZJN4PW8JoLzr7nNTWMzxJE-_QZhfXg2RDgWES2_QBJG338ECq5aXsnMuz7Osp4WYLcj7UVO9sw2tiTCVuzs449FvnatL9cA1znbWSVK28SVLEOJBcOX5EPiPIpaBue8rblpbPT7OHa55STHBiEeHn9MZN4Ig1LWd2ddcyjk1Plm5u0P19JRipcpjw5nlzycjJLCYgWBOr1LFB0'
p402
aS'gAAAAABbzrl9Xmp2R3nRj_LXfAmfiG8Z-ym4ChJwGcecqn8SOhVpLzdDFydbqwCwPn0dJ79q0fahRn5rN1Omheh5wzq8SDMkbHGw7dIB0kCj6FzO2RxVomJiaoePCH9ZCv_vittzfjSkSJwSaqbZal96ww5WCmWsmNbq4N-V4l0HWUeKyb2An-OcvVgyceQ7wBmspZxr3vCeLpH0iPUIxBK1UFslEERZle8U8NovjGhYL-efOBAt2hKE7gJqMuJ6amLUpuWVwzyj'
p403
aS'gAAAAABbzrl99u6aWAFFAu6cxPAsh8ZNY_g0IkzoragQ2vD-mS8sDDGsXPLMnifAHjjeSsperfSu0yifrcLzxKQ609dXAHCP85T4EjU7wiDY0VQHsmX2aFPYXB2E1g8qmLPYdkThh33gAXl90HqDuh0f3fNTnh1E87XzBWwmQqpKkpWtO_PiO2wE5VToswLABGXInJXEhYnjm4G4KilUT5mqEM7JlldfcCPbIe8RWGRO7mHHmGiRbbQIMnlDFegA_EpwfI7gtwdU'
p404
aS'gAAAAABbzrl98K6o8HL-jnWT0JXYeB0Q-sbw_A_tW7GEh9O-9PREZj6wfAsXWCQxEcon4sYj9HOv2GogpfVPsl2h2Hn2f8JrLUxaA0VoVBorzDhsdcfETNoIu63RQjXQkp5-qJDFVq8yu1FfDJGIrjIaO3KtWaW917vUsi-kr7SCGd4vYXxTPoN-AVbh4uJWYlEq8ADkZEF8b8uWBnLq4gRaUhmj5vruMdA8hzk0X-fyPgfBZU2J9JoTwBh6Y8MCNL3xjJ6UDwNX'
p405
asg41
NsbsI1
g1
(g23
g3
Ntp406
Rp407
(dp408
g27
(dp409
I0
I2
sI1
I3
ssg29
I1
sg30
(dp410
I0
S'OQe-w0plVpVz8J25m9udRdbXWTEGqst3r7Z3_xScxgU='
p411
sI1
S'u8Pdqo-3jXqVRgAASuRpGzIqPhFiJ_jyiG7-mTl0mMc='
p412
ssg34
g378
sg35
(lp413
S'gAAAAABbzrl95sXut7Fc2u9EOdZnrJp2C767QJK4HUemIUlboKqTqrcom-ITCDsizlBJ-8bdoBPklRSQoqoe7Z9s9YRb2o8BFR5QbEPut58t9jiMq2gMdePPkyg4LS2t49mIiHYQhbXjtiycfr3fErHqpD8Os3uVKY2-fzeFzgIyswA5X9y6cpxbPfX8N4Emtn-Hn8NucnQUBOuQAdCu3W62WxjyqIGp43DhDRVcQOVbSv4orlt1daKUYg9O3WJ3dJnKZeRgCQeE'
p414
aS'gAAAAABbzrl9IeAiPSuJprnWV-Y9mgryf0PtQASYDNkW68XIg0Za8LFbEq4lWsckGzsx83TmjNZvhD_L8wRSgZg4s38QWPo3cogkr4ZKykHgG5D9K8SHIyGCFyrUGaHA19Wj804tKvLIgKDuUQpEnvUSUwCgrnyhOPtpQhxV7ucH8u6bVcFwMecE3YhqIMyKWS2xz_usDS85lh7o8DZCfF5gRwGtHtgmOJa1Bz0z4hX9nVDNyqKEe1qkBQXZO1IBqjMrzegROiXJ'
p415
aS'gAAAAABbzrl9pi9p3Cf0qTXc3LFW2W8ohcEEHYXcGN1RQtymUxXhZFpu5T_vA6GROgwubK1GgIpSLu_FQZOfIC3raoSWxEZLY4HKaVrogy8Nqg1388o7_l3KgKqyqPcvH70URMTh2_FeDANNCCprPlb1_jwG-iQ6djVJ4vxirPD6r7uvKiFLPXBgEmCpd2VEeSDXheey4s2Y8P9wiwxu0Av4WBrTMWAzlaia4O_gy9fLJddB7sBeFR2Pws-481MAddumfDb1vkvp'
p416
aS'gAAAAABbzrl9oReJYGWlIJ-nXhYVtlB0goKVCdHQD7ixnXXphYZ-HZaPha1znGGsKuJLSLGW0aKOtKbvmiz1bruLBFKYVI9SH5nNXnsndcg3Ddl4VBq_AeAe8K0xiaDDwflQ6UGJaNhUVjM2VMVdnb1IceuXyw2VUnrdLIlpykeEsJDZySzXAZNAt3wWxDb61Pqk9xyuQ2NFjj5hvYRk_5BXgbEWV-MhdZdMHtn7xHiLCpHUVJ6JN0ieTYf8PKR9s0Y5YeAy3YiO'
p417
asg41
NsbsI2
g1
(g23
g3
Ntp418
Rp419
(dp420
g27
(dp421
I0
I0
sI1
I3
ssg29
I2
sg30
(dp422
I0
S'vPMswIyUtBBVEAIfTrfiHEGcR07TwOFr540to8-4opA='
p423
sI1
S'kkSfeL4UMnCqD08bCt2ePwRZ9_MaCNGDLxQSR5gAiKY='
p424
ssg34
g378
sg35
(lp425
S'gAAAAABbzrl9hENQ2kKM-vZ2_FLQFGs7SFXY5er8Se2U_tKCiPOrHUG89ZCLOvq8f3CNcMiobmS6qBT-Qza1Jj3d80R-6LWGc-NnLMl1jjnRCykWvKY9t1vKsKsgjg6TCeHFLufsBurX6wn1Oa06jMYRzxDbRS71hUmdxFaFcyJvDyogDZ449mG6AGMoFGK4tyYJwEaWAMmMQ8PhXVpFRYSdZ9oUu0IdRu1BpsTYYU_tvDwZGfeRZvk3n3xG8ZGpHwixkLp_bxVG'
p426
aS'gAAAAABbzrl9no5OLsPlFb6PTQEqZarvGREs-IGybMEyYPhp3sKwxixzXRlWX9PSSBHxvjGzvBGSdEh4s79zK_YCb4fJ5B2FtjjKgEU4N3SiMjkwBDQi9sZco40VsO3Dg7Ugf3GfJ8SLHC71I03vgEWDnmhMzQTDq6EU6KdyAPfGYBPgqrxJ5FeaWm1zBUAvMldDhvLlfwXtdGDsFejApu2NN1Jai2Vrx_5ZdipG7YGcuxVSZwEHKv6dkd1ds1HzCZDQRWCR96Jq'
p427
aS'gAAAAABbzrl9vqxN4-7qNfWQEvvFTLERwzmsVYZ-b9unmz0btaJv0TRTO7kc8czJKTQb_8Cba1fd5sNLIqpjPXq96ZDYS-ZT0JH5RrIc4gd4kPJNUqOmb-iYdi-1o7LoeiQ-hAzpYd5Eq2IXeU2RQZ9oNVnNqIQh-OkAQ9OTbT19lKLaeEn1JY3DjLCqGTsLpPyKhM9c2h2eeKApy8X56yBaAslP0un0OxQJqMMFC-norna6d47fQsW_6dZZMHe7s_FnK0MYki6B'
p428
aS'gAAAAABbzrl9KEyBs8_T2dWU52oQpt6wR4Nx8lVGUkLOMcy28DsjdDKlCHpwTqdsv7-REZiheQTklnxU2nJV3EU_nAB2jtdNUC8rhppiWCHzoEygDDixHYnUGv-1Rvp0G-8Eivm9yNLhsw2lRSp750dszGXsjhfQjQx5Djr9VrGX_Eyv_HyS94U3-igizM4bN4ltDaiAenZ1-0j5x8IRcKLC6DyHv0l1GpQTk8OZeOcRB8mwr1ZNd75GBCkornH4C2WYhGHtPgyW'
p429
asg41
NsbsI3
g1
(g66
g3
Ntp430
Rp431
(dp432
g27
(dp433
I0
I0
sI1
I1
ssg29
I3
sg30
(dp434
I0
S'A-fwEoZL48YwpKuHpIutuwLpfMEr0WHNvOsdE6H9084='
p435
sI1
S'es1IyelQbWSLdgr0z_FJz4wF8hbz_5ppnfrE4JSb3Tw='
p436
ssg34
g378
sg35
(lp437
S'gAAAAABbzrl9pyNQvwWSEdVLA-4SKmoyeqTmCEvTT3JlNl4STWXbUDtlJAEX9QHaFfw6w5ZoXrSoHvGj5m8COQrzH4ubx79UnE9wlPwzNAXDQm4cf1YrLMrP1-1SHCbwTvmodUXdN4gRKHDjfASwinNW6dHmasGXFLNBJk8WichKekwIYpmQaOFwKkP7RTmpKD36CsgzJMyrkCRPUGpX6rm0TjbH_p3jp4vHcOhVrQ2KkyGL3OSv5F2WV9j8OwQ6CvMwvs-f0our'
p438
aS'gAAAAABbzrl9g2jlocUbPTHLesJiEPfJkgIxa1VQsCJtapPYviZfkUU2Kr05qDISsoyoEqAcvnNaGgkp14-7vhDYiC4SgvehfBVRKof974CCJTuyfRZlZO7YhI5nf6RRPG-rnyxonDvuhKfUYKSKT2yUF8khpQpo3rZLjaWlQunAYdJY6h85htIgow2uJIsFBPXVLeWKg63JDkBaArqEvjqWdblGwhm4k01pVRKD2OpsJ8uwGtwc4GHkZ3DlttsOZQ5eX1iS_kRc'
p439
aS'gAAAAABbzrl9C0vhKWx44FW2klLDDRtU_mgYXSRYbNw0YIGZvPrsQKdGBMi3MvXMIKSYFXbjaIhKessZItEb6gJcCl27VvE4nfS5MCWjpC4GZ3QD0UqUMShyv-aPHJGIxrPZ_sHgHSpsTi4KHzFtFhhzRm4Pkc58wc42tziFGvRt5fTUB_xHwFU01tTJKtXI0HLt8ou-W3k7UHcafvbqJ1qS-QwKpBf0YycQsENfS1Z5M3u89MTjUG-6BHM0jchChh_o8dMJQ3nw'
p440
aS'gAAAAABbzrl9hcBrq4PqgA9fHV6h_C55eUc27noZ5ehVoN_BSKsxoQrZ4Uvx2C57kMg4ZXURdvUsRR6w1eZNrWqDOCwRv5CxCJnXGjhptaDrLViI72DD5VbYGRbyaEj2K08H66LC2irUjn17zQEVPYKs0SaPo8gK6fdgpylJ15GTRBXOcWDFikkoLItXu1qq9AYgjB_TLSRMGTVSqz8gnss9gkU2e-TwjJM72-TsF6_HD2czAoLkF8OJE5iqNfWYEQSY39UfBmqe'
p441
asg41
NsbsI4
g1
(g66
g3
Ntp442
Rp443
(dp444
g27
(dp445
I0
I1
sI1
I2
ssg29
I4
sg30
(dp446
I0
S'PORlBhyyIgT2vMuU_IUucZRwWZa_9z1DsQjGGxmuyQw='
p447
sI1
S'6PsLVr2WXllBn--fkwekkWwqEeShixEvMyFRIaok7Fk='
p448
ssg34
g378
sg35
(lp449
S'gAAAAABbzrl9BM11TdTHdvOqCLPpgNFGDRQs68Sfflh20nsdbExRiFoq1NIsqtyp5KtL9HT5qR0MAnoBk_HqtDnhmNo5zdmrFri-YqPT8xPyEkvdGDiJKUx4p1cxClowvmEkPfAczIfBQChm0BQcyWzCazahFZgYZvdkBzBJEUbn6I9DwzTJabv4yFhBMji__TB48bUxP3xhsPl2LJjWmn6ofntD3M71qcHuVv_7dKszDNvYaHPd0p4oQuGNOqT8TFFKjS57jMK8'
p450
aS'gAAAAABbzrl9aHZzeaGwbc_ezDUjDCR61epsiTAVaI6dshvgbDghdoPfUTcR_iB8xypgpZ4djgs-wUSIRXeO58chX50q-MxzS1o5TTHVAWA3TNr1YH2nrMlNb8GB6Usxd6RiMLls-LsN4FMLGx8bwEqri4SsJa_ux6aJXUW0RfVj0W76I2ziDUqaV4mxZ0nCYl6d6e1qL0ZsDSCQf_k_n01MZjnFKW00pPZvia37ADHnVsIMlOcFkcrIMa0HEhE1cVJyTWhMLMU_'
p451
aS'gAAAAABbzrl99BM533bAP3AH0XHapVq8zniGnaQiCa63Tr4IE3q9UAD4e0NZobh8eHa4pS-bRXpBbUwP9RrSFmAlfhWbMuZs71PnAt_mjyG-TQ0z1BVDCUV08PPYlf-1euRgH1LHC8ez_zfUmEPvzzFbcK-Q9XiTWlDom4qUrwLRPxEC6sdzm7JONj7mQb7boZTZDcsbxqGsyVz8PNouMojzZ5GFwvxevIMWm2QR7kCtq9C78FYmA23hiztYIG9Ja407Met3RR70'
p452
aS'gAAAAABbzrl9Cz0BpZv5Tx8AbFPqVFEB1qCl3uOVWgSBkKXiIKRv_pyfUx3e9c0nd3Ggc_K2k4rzI6ZlEXvUZiH_c7DpFvlGEc20f6s3jjqb0l5EqZjWMFYzRcbrII4Y2GAxBgOSb8EEyIho-WDBtbrQgE-V2-PlSHMFqbHiJUVmAni91qB1JM0japNsKHQojg5F0u0bw3pyOzhOqEjdkYhRjBl0vGlY1UY7BBa53Ig4EiH-uvQjSSB5WkclK0aYemnp4hTU8ow9'
p453
asg41
NsbsI5
g1
(g91
g3
Ntp454
Rp455
(dp456
g27
(dp457
I0
I3
sI1
I4
ssg29
I5
sg30
(lp458
S'[0]'
p459
aS'[1]'
p460
asg34
g378
sg35
(lp461
S'gAAAAABbzrl92F8mKu4WN1NC_t9GMZF5MEykF4Vr67kETT4twYy5hrp6Y9V0yLSrKSkD-dRUfjomawyJPKlOF3HSo_C0jyqfPCdVXjrHIYiWMA9uUilCZsY5CQGXzPa6_Q_iGTAI30MEmxaRqEckwbAtQcDhUXkGCP8x1dhIQVHg1GHYsjb7-Akl4zjYPSCmQ-Crur7kTQYeoPnMgdvWRNpuJOqKyPuRjw=='
p462
aS'gAAAAABbzrl9CImgNtMA7lYg3fvXZLErLABkZ5qJhRWw6db9tvmxcNtanKtcJz905rYRoew86vyjFVolRKExtu-ACzaayHEpdPem8BopneW_FU0BZPAQHK79MI7SGLLVsvmpFmUeHNG4iWgbpj8OR-s_1N-czACHkJ9xYEeH2NeNbvgTwno0Qan0UdVnyGC8zb3B2mrm1PZPCzcpd8xilO8RlP0xmwopkw=='
p463
aS'gAAAAABbzrl9siD1ujCHusvdoD39Ne4JQ47TASR09gKhWIAoE64aMFFh0F5ADfZt_XB9pe9vrwSGuNZ7DDG1kjrlBAEZ08gOaSqrS-bfHQhlkJU5inW4B6YJOB9b0Ef1ibJLFYXnc6kAyD6b5mQSFcMsXkqR0h8KTvxooXqnR9g9M5f91OsXdewImegBmKvSvKc2YjmRNx_GHImLDq_u_U5pgnq-uloZBQ=='
p464
aS'gAAAAABbzrl9WraWtQkAfaR-KZZWMFL9Mza134nLUE5fhsKueOHUHv_bzKsFAlWIzr4LsZe__x0osE_79jT6wJ6UFWxECwB_pCYLrR-0PS_Z6mUDA_flXC2BaM6NeEVha7GR0waP7bsfzNgvYNI0hwNA14HNBtA74_g2kgMHMiTPQgNd4F1V2fUcf7LuBqvkb9S0ul-oJP8niKsdEZKUghK8M9tyPgyXSw=='
p465
asg41
Nsbssg104
I4
sg105
(lp466
I5
asba.