(lp0
ccopy_reg
_reconstructor
p1
(cgarbler
Circuit
p2
c__builtin__
object
p3
Ntp4
Rp5
(dp6
S'poss_inputs'
p7
(lp8
(dp9
I0
S'x_MUE2UGL-YuXHaQKI4zMHHrWkkK7glfFyv6JZR1FSg='
p10
sI1
S'9jNZrPv3BsfXIKFl9tVghLFoDCXpcw018b6lMrXlIVc='
p11
sa(dp12
I0
S'ZFxDT6VP0ZoMXa0OLiXLDEN-iAnV8PTBXfgz_Phszjo='
p13
sI1
S'HDaa-i_3uscH3zGcwSbU0IkXAb5J6DNHWO1Q5pP63dY='
p14
sa(dp15
I0
S'1eFs-td4f0x3HWrEy6hDr21GkJSSM7VDtsHcNBSUhvg='
p16
sI1
S'94CsrAOY4XqH7G05c1M5QQNXQp7OjZQAYng89sZB0Yk='
p17
sa(dp18
I0
S'EcBj4DfvPybI7maO0Er_0osR1JDXaWCqF2yvsyfnhmo='
p19
sI1
S'qX9FQ07PiJKwZcTRHf9SxoYh6cjvRwI2c6SnBSC3bRw='
p20
sasS'gates'
p21
(dp22
I0
g1
(cgarbler
OnInputGate
p23
g3
Ntp24
Rp25
(dp26
S'inputs'
p27
(dp28
I0
I0
sI1
I1
ssS'g_id'
p29
I0
sS'outputs'
p30
(dp31
I0
S'kcXvhTsKPSPrP-3a8xI6rZW0CF2YeMM_Et9hT5a-jWE='
p32
sI1
S'obfI9sk844W64EpcO_CJKs216HVRUKaT8vMn9r_6VEs='
p33
ssS'circuit'
p34
g5
sS'table'
p35
(lp36
S'gAAAAABbztpyDEdn8dzDa_BGr9E0gonWalrhdMWWi5fadD50ZAaxGRc6ZYs7SB0qqRXJjHgo6D2Qoyd9o4db4ZMbmpdzBkyCiUDSGyPZI0WVppzi5d-iUa1g9g6BRZJQ7dW3GsfuOthL89fPPGgPySwWHOtm9QHXRnh1PSh8vVaYizmtzwPbLk7TEQZadZxq1RZGdW_qPEf-JJFv9LbJSCu83RPSMMDsODGTLzp6HKZml-g15gDOMmgsd7oY3kDN83GU5Q_EieBB'
p37
aS'gAAAAABbztpy2fjmIx811NKAlaVirCchPGGi4E6S9FPJ3AbJCIsoe5j4_hSyzjOlkkAOmWCrYj-9q0LGOCZTH1cHhoOPaX6LmoF1_yiP7ONgw_YTiO53To9DlAR3g5MONL_toD_N5VvNA3xcl_Jnso5Flo7awIFz5Mw7d622KFs_a80j75nVC4W2J-V-lOtR-XHF6uHNdOpvez0MBw1m3LDRzs8P2HGxbRfy7pUaNBFQoalaQCZ-Xp5fgU9_7JgpMXJWYKwkMDah'
p38
aS'gAAAAABbztpyWMpNeNS8vLgAwc5gt1d88DJkXw3ZF4C3Ve50ih8SSBaIlor7STR8Ht1hhnk7_75mmR1FxLrLZ8zO9j9hzDBW97qiR7xzJDRcqaDkLZoKNudW1O3-yT9uoJTd1SaLj4CYoH0qXe4N-7--MIXP8QWqpPQj-a5yNYQ-UbslSah_0vmXgkw8mJBr1G7jdFFdtj3esdFz6zpfC7C3kTxDG0UrAlAuFHRbZ_Lq0ZmoYxGwvH5yqJoHa_ox4RUTcxlW49PB'
p39
aS'gAAAAABbztpyNeG_CcAQYC2GsvXZrOrqu7feiJocpFTYZ6rHlT3f-Ex_N3T7xhHlL_Abzckr3d4ZiEmkhr3qyYqX_nGgfY4eAGoJxAsy44bJiN4pFwR6kdrMZ8BI9-PEDpfQXTfHpQiCPXNEtOuqwt7rpNiChJujreLFSAN9tFcCOEb2GmKy3Irava-YpA7sLAeFXpe6EL5HKttKSk2C-yRL7IluUq2blhp11MT4QfX0cWgq3tqsmG-xA96kw-xHmkssWYuBtOSk'
p40
asS'output'
p41
NsbsI1
g1
(g23
g3
Ntp42
Rp43
(dp44
g27
(dp45
I0
I2
sI1
I3
ssg29
I1
sg30
(dp46
I0
S'qtWilhlmBKr4SwIla5OY0Fg-3ecBlnnPWlVrnx_cOog='
p47
sI1
S'FYNrTitqXahxYdO0mkD6bI7IulxD6HljpNF6nar9EDM='
p48
ssg34
g5
sg35
(lp49
S'gAAAAABbztpyuzzC1EhHXOK48t_MXdo9a76_d92vx7_MqMatuoFH3fWR7vwGWeafI36Xlebuc1L_1q2tk_nno38YNICysyXmaC00x9vZRdlAlbPGJWbEsLrAxbThPCUnUL-t9IrcimynmBkuHzD2Zp4z3LlmTKVsGYpP3nOcKK3bNjJL0Fbh2-QTYF06gWJCdbfRthwZP3eViDIwSMTR0aDOQKUiyEluORmdhSDRC9eiQJVL7ojzs2j6JjmQMCKgq4kDQNkgUPN7'
p50
aS'gAAAAABbztpyTc2JsCRJ1sFKpk1IrN1XpagATRRcEmYk9KYRuCQawVbPeeZUqa48NwNshFWKMR1DTJyCA0jTRV91cduuPvdxng9n4xtx6vryMyLaKkZnWaP11kAbED5guoRxwVp2_6WfRfwx1YAIjPZRxWQY36oX6_4jolfZokOKAwjl8LcdK2Zjlu0P0oAObgeRFlCn4MLrc33xl-zNdFXjXsFwxgzLZQ-5vYTLdzkzEui0aWMiJGdD-p03JRvJHhSbv_V0ELP2'
p51
aS'gAAAAABbztpyVi-YCU2rMRUnTzdZNt18mAKsxrfo3REIAP0ST2X2NFQ-PlrmfqOPDZoLF1WS911Z3_IIZJ7BF6HUZOacHTkMrQbMptBXkP6TO0c_oHDoHzhK0bkQ6TEVunwo61Inae02uZCrk5H0W6VSU8vRoiAF-WnZaWqq2quDAGF-KWVjn7Z43Nqj8TBcdGGgXi5s_-eeqVnb6t9FgTT8Ixv9rVo__9ZRXxzwM7NK07LAlRL3dMTige7zUoFLtPVMqaWAEBaJ'
p52
aS'gAAAAABbztpyztZ8QlBhq39BPo6duKDUFkZvC2RLGcC0wg3FPcDvd9257tkvSnqZ3aBhj1KSTt7ayhPbpL-DZdN4yXjmFra067lPcjyRD7PQQr3i49indP26BM2V-LxST8EogTqnutP_Eb-9qc9OjKixq-kYdII2ABN76hoaeMZ2fKNggfKtwKH7Yl8CoKCfsalbdI731ytTLObvvlNXW9UadDP6c5aCUbUIXfmg-TXZ0lWaOPFXTLl5-wYICNMIFbXHB0gRpBv7'
p53
asg41
NsbsI2
g1
(g23
g3
Ntp54
Rp55
(dp56
g27
(dp57
I0
I0
sI1
I3
ssg29
I2
sg30
(dp58
I0
S'SLRN3VEa4EC6aK4WSc2EpueeuWFS9dBmOmAFfQ2v6A4='
p59
sI1
S'L3fS_bAn9g0VUQnbAo5QaJX3tKANo8UZkOV8SmYuiUA='
p60
ssg34
g5
sg35
(lp61
S'gAAAAABbztpyxRrjbXY5o1EwukpWKOMWKrmbAaR2aCYhoc8eiu0A6DCyC0ye3Yv5QScELX5NdBVoCFe5X5dpRKA_FioO7fxFK5C5KDz0qFXUjADttm-3rsB9A-fx32Ae1Zr1hVx9rojGwJnCGg-X_2F4u2F8LS6hj_vdEnIp7fYp-MQxxxPdXlPQjXNCXg1GmJGeArAP22-cN5zwUy6oMIlK_scBg28Y9T4yyyw-_U244eR9B406DtduewVk5DxSbU6a0ekGHAmo'
p62
aS'gAAAAABbztpyX_Pozp_F2FNl0VUTNKHtXDUrfa6NJA1ixGz9LuSWGLZY9VzLLu30BzXX3Va0EvUpZ8VrPy7cRoBhV65yk0bk04znFsGE5tL_SSutPG2KHobOHZRrPX7tJC4z_1GQ71iW2dhz15BNFsCGsCZ6MVhLbCCJPaG3-yshMwCIKiUM3-LKgV0wHGvIuKYCuiMQx3rcvoK0aDgqKrmMZUUKx05qTfAg7GwJo7_6Gpr976ZlRXjCT6h3lQtBvL9jda1CxmpN'
p63
aS'gAAAAABbztpyTXYCU1ZIETXtulqzRlDzZNJ-LT7w0Y7_DUKXnBCLQyVuArm-oXLLrO-ukMUmaChgFjLbNK1Z0BsJV9GS7CzUd14LuM_whb_nm8pE70sTSg5tjpRLN14WUN9U2AzaOpcqCmyRoOwXDo99ZXFnPIptaI-y0iRSyhR8RoLQNlutuxO0y5-jHb5vIEqg56-M9Bg_hJTH8OW8iPbJcvGKmhgmFc01LuKm3MkNwsYmvsrZ27cUlTWgBzrgiIPNWLZ5memR'
p64
aS'gAAAAABbztpywYThZHTkiqf4gk05-M36svkJ_Wd0e49hT1yImImGfOWy8t1E-okVTu2hYEBfx8U0A2mloafTnQf2ZZsTJJ0Eb9jzQG8xOnTKjwNbknRami1RZxJzmgqJ5qha2V9CpjZ2Tzxppi0hcau6c9Bw75vAMb201PME5-B-r1RYxKtqybO7FksETseh3WYPTZsd9cnTilyWP6BvKtx_zZpVl1IsuuoaXzbIfEMxHnUZudfFnpmC9mjQ0DBtsvaTQEerQ6Jc'
p65
asg41
NsbsI3
g1
(cgarbler
Gate
p66
g3
Ntp67
Rp68
(dp69
g27
(dp70
I0
I0
sI1
I1
ssg29
I3
sg30
(dp71
I0
S'LA3R-4FnKABE70Yfyg5MrWkl-hZsIU9uLuDdEfU--zM='
p72
sI1
S'VsetQ1UMjGQfrnRsaf3FiauM85gAy425_osIsT1G46w='
p73
ssg34
g5
sg35
(lp74
S'gAAAAABbztpyLH_B3zY75-VzrRSWIpNYe07vsxA_Ao332sk8FOtpyF5w3T15ydVhSRlJoc6cRmyBqraXhuAe9tfV_thJ151tbLCLKE8EtYXviOe4fT3aKjXiy0dv8snXGp2vnytWQnzYbxDdQ0ETXMkr5squIv5rz0TEtNuQUAzv4tuzgHe7X6JGa2Jp6KIklSF9mgO6jHUdeOwAsnxTaJUZFU1BJBAt4JLmG5e077xrs4CSFdxBYLZtndae18aEZyADupgL2CA5'
p75
aS'gAAAAABbztpymfJJ7ey3WhY8In5AUcYvjx4l2HsFJxaUWIDUbXrOJObnmtuxrQASWo3JzytTGtH_F0eb86n3rpT0646GpXTKWS10RIlkwW5-RglLhCll5ZLSFk6100HRynZ6b7XyWAqiNX3fFK9X65OOMBxfMHe-MM1FhUwNI6mMMwL1ZPqQqPtHnyEPF6GfmMn1FTzcFQXF1AXD6s9TCUomxhMgIytEIJxjxCRlgaqN5pmCrAoJf9lGagPwHQxoMIneZIvPg-Eg'
p76
aS'gAAAAABbztpyRw2EHnoTxwgaJclbVRmVB5Av_I-DrE5YsT-sz3PzxAh38yBsS1MD3AttJZMmg1ESOug1mGzJzquAJC6G1fkZHxCH9OCnKv0YKUXHEARdWZJ4EEYvfyoIp0isICioxomuwDolptbGZfJd5m0kiUOyB7MGYzZxGkoCj_eYh0oct6P0p_goe9hU9-aDmLOvF_BbLLjrIqMVpGpGwKOvxhXiwCEJNGAC-jR48HAc0aFlaj5N7j_EISrpdMf56u9wo3I0'
p77
aS'gAAAAABbztpy6MI73YQmsM2TTVHIPilKkN3qg0T0paWwpuFb8OLauSdqOdkHelk2VWBL42ajq60K1VO09u-LjSn4QALfSfLhFc7s8ttn-n75fO92myJ7Oh85gz4IItQMiKRnunI8tWsbtafFN0KjXd6BxwAW-i-vUoq5BGurapijRX1QmMIU-60J3CmVp0q_IFMqYYYjzEsfLUk-d9mcuD6wEh-uAf5X8UlAjSt1RaU1s4D2plDG1Oslzvt9Yr0oLn6C3IQw27CX'
p78
asg41
NsbsI4
g1
(g66
g3
Ntp79
Rp80
(dp81
g27
(dp82
I0
I1
sI1
I2
ssg29
I4
sg30
(dp83
I0
S'buM2_j1s0lhz--orKTagFKm6uFTrtCtjxRbRybWAtOs='
p84
sI1
S'T9aeCm2wLbjYgeRZuzHuD7Dfd7HdCKIpatl2XbTJIYE='
p85
ssg34
g5
sg35
(lp86
S'gAAAAABbztpyhF9wKxEqlDOBm_F86yzXsVCWV9z7gZ1Rzhz77aOThg7QuUbzBmB19hnUl3rfDXfY2TLCyXcCpbvCbxfHKBV0s4vDg8uLOM2qhzS2mDjnnanc-5wFoawu-zoXCa2sCTgwliO_l9PqMpf0delDQ_qWEcyDr_12ppg3gYq52WiIclPR1FQG3zlhMcswA4-ffMt3kIhp-draf-VuYls71KzPs9G6tlNT6kr-wt_xPwqWrjoub5_V3n6kmqIImLydUofv'
p87
aS'gAAAAABbztpyJfmhaidFRsE4oEorNMZ43mZ6KhbbWiVWnBxonP1i5wj8bRmpTbWHF5Dulv17hC5igrbFOKCJQgXExB_gVcKgPBIrKEKho5IQyontwcn8lPbJaxBzkvDkJoqqSBjqmf2z5pNIIKIKzFbC9AOOBkzYkS-ozZmXuOik1qI2eijMow-DZHdoRbdD7rYyGNs0KWZVz8N7dtM9H1UwQFaTHXmiCB8IxRjGGsuTod70_lu-hsv8-zRF30k6dVvfqdf5KGPv'
p88
aS'gAAAAABbztpy7gDMgCr57o3zIA7qt5Xhf0xIgJiWkuXU_fRpVLDYNFqSzglPIrFp5vyryNWXCSGhA7jwl3GVXt2Ezzd_fle29fYt6TUlYydrJYumjsMyeZ5VzA3UQb9_gU-vnA3wDNH-QhtG31rmuw4Bnle21iC6ADp7eljC4Cuxg-9HxS4DMLjCLFopVqC1ks-6PpOWt_UJSQ67HctbtxhyNh3z0IKG7SM8DaGynCKBExam9R8g9rVssAczHquNTirTeERcsw64'
p89
aS'gAAAAABbztpyINPB_cDPBmUys1ecCDKNLo10WWhQ1GTHa3VI-QukCkV4DjlOsQTjH2at2_GxQoQW1JVTXQQ8kiF8uXiEH73EIphO3c1hcBqZFU3Qj3YB7blAUhk12oZkWe_MDi8YW9U_KmNwrZX89-JXF4O19FgzFFBBJAnTMs7lHa5NmNYQCBXbNR6RAvp6GnrR8KLLSgPEh4Lz86ybYWKR3TvP73JifIo3crXAqgbL1-z8zhBc_HHp37Egbl99kashxoSognsW'
p90
asg41
NsbsI5
g1
(cgarbler
OutputGate
p91
g3
Ntp92
Rp93
(dp94
g27
(dp95
I0
I3
sI1
I4
ssg29
I5
sg30
(lp96
S'[0]'
p97
aS'[1]'
p98
asg34
g5
sg35
(lp99
S'gAAAAABbztpyS1XIW9mMMfyWYK4Fq9pe2ssYd8_ylt0zUbfPAaumiO7jtHMLPJxIos9WGslvXDE4SS3s8slYYu6MkuWWirQH6k9tJqprw6qwgCpZMUizxQAYWCRMDR6Hx9kORwsEE-RpFKHtfLd9gx6ok307QECI6U7-jIKEUiNr1-XoO-Vf-cBQjNQWkGbZLzUvV0ywRN3fySNIzZ6E3n47S6JzRkvRfA=='
p100
aS'gAAAAABbztpyYEEuAiAnp8CFrD1FZlCqiOZlNfROFXW72pqR-N1WsxQuyTzHLeiYH3qgek1UddT-S-olNAd2fSYof7-Ug5GgR7wUnrn6Fx--YQpqUQnjMIzHEC4z9fAvuHXOh1VwO_ZV7NdC76IZN8vs_StYBiANXWVBUBaxKzgEbv9qr31zqcaycQDYeJPY5mPFSIuBU1h4nOgswtdcmJuZIb_dQ7GnPA=='
p101
aS'gAAAAABbztpyKK5VjhcgXNnRPBoKLKl4iI3phTgv-kyxW1VXp-I2iee6MD-v2rnMxlPjK1SP94d_CseAEyQnoWAjE6dsM-jSwFQnB56_YgmSoGITk5cD5d4t4nIzr1PWORFVli3smqndv_gcHLI3L0CkYeYQjaLR-WmeNSX2x4FVWjFXzakVS0yARFMeFuvfetMEOPbv8myQNtjsHeCDcM1FjkMQ5INh0g=='
p102
aS'gAAAAABbztpy8XD8-bgFvVH5ysIY9mHE94TJaMC-vBvV5F55nUvqPXMkqCQIlDKhfLRSXOtC8TJhxnTNXX670EQ728u2P7AwND2APb_4QZ-8frwn3gkhdq5wMJPaFwwNP-fFBgFGyQFFKbiINygQFYPAhk9hIQ-lliFk7pncmcnUoH3FLkC877MiPF0tCxNVxd5PB0R-0nu15nP78mh6Os7xeXwyNTQKpA=='
p103
asg41
NsbssS'num_inputs'
p104
I4
sS'output_gate_ids'
p105
(lp106
I5
asbag1
(g2
g3
Ntp107
Rp108
(dp109
g7
(lp110
(dp111
I0
S'sc72iEQvxNThTnOr978YBZ6R3kuq4KhPI_axBiJmCmA='
p112
sI1
S'mVlQ3iYB6Sp_sCMPycmuafIbCsf5-41LH489OxgYTe0='
p113
sa(dp114
I0
S'H-eaDYb_ckrHfTBdahvvbNqX9vbGSQzSbIWFuX6JmeY='
p115
sI1
S'cexoA6sIK9HcGgG5Lm1oLfNXsVPaBVa7I9ZUyf_phtE='
p116
sa(dp117
I0
S'KJ8JrTbFffwFh9Wi4js8jlVAAJtaISS7lkXxSWzOT1c='
p118
sI1
S'MGdtrGAir9f5wMBGIeaZhNRQWOUeYmh4En0tc8Ect14='
p119
sa(dp120
I0
S'6nJ8Hd4i8iuOPkK0GWg8jSRAT2ZQBUIafh5lR0uzIhg='
p121
sI1
S'5MLPuV4SLYOvMmn5wHtglI2opsHMgnrsR12dPostais='
p122
sasg21
(dp123
I0
g1
(g23
g3
Ntp124
Rp125
(dp126
g27
(dp127
I0
I0
sI1
I1
ssg29
I0
sg30
(dp128
I0
S'xrs_pqmOxzEtEHT9ywlyN_MduSfdgrbrE5vuJyhbJeI='
p129
sI1
S'u-SdqIHD_-XpvsnMaBzC-EeHDstuc9wGtyuxGI22d90='
p130
ssg34
g108
sg35
(lp131
S'gAAAAABbztpyjbabFjkujM0hbxtN3iOwyFA_Z6JkuuaN1_mKnRMS4qV7WEr5Deo9FypDnKvNhcYiBDWditM6hvhyzcMTlnSd0TMdwzXqkdhQz9TUI6mHqKfyCgV7DHR3cozJx6HeWG3QfMbRFKTKkxmmlKZkuzNw-WXLKsdCnXXLc1DBCP40YzDE3hDcq0XsRNImOmk_D1IzARoCMB2VrD31jrjVMxEBzqUWU-EZTaZB6BTWoSs25Ob89oqAT0WPZm87Hh1Zg2Si'
p132
aS'gAAAAABbztpyX1amzvgrUaDtYxqxeEfXVMYf9FG_DsJRXS9KbUdpT2eFxUTD9X1rBpqRG9i4vBmPZH7suZMojVhjgMU8sQynJa7-Q8UJdd766hjupVYkhCizA9Ddz5BSgnXd9_A1dbZS5SWFciFZ3CIL9MjxVfIuDxhBmC7owOYfva9HjPx5rDjlBEkwIoUnZsh7p0jR3os4kwWG3J6dGuv449xfCS2X9SUpWDuxqMgtaTOvNloDBr91wqK_ktymJfragWllkzCW'
p133
aS'gAAAAABbztpyWzSIptgsjefswoGtBW_vz94mPJSesz2b-H4m-aZCef5Qg-wwYCAjJizvi242ZOOWOpHJ3iEQgFjJs2Wdh5bWo_0mEJS8EjHNVyE0dv3lDnV82Cy5YiWTK4gJsHep5tgcPL6Cpl9JUTwmZ7G2A-xWcoWcr2MHEzQLNJbL9YlaLN3G9u3LsTqbCPyB4G9Vnd69qoznQJt4hLW50QmOMi2YTKkG-P1eINji8rPBWu8CucYjpm9JM_RC0GzMHkxzFS4Y'
p134
aS'gAAAAABbztpy4URJn-Be3XDsXcq8jYR9YjC7E7Z6qJJ8ej4a7hI8lOnZwbl9s4vzMlnqW7pJ72VQkRq-luwIytn6Uzt9HoNPAAPdeKrMP4Pz0VA6yzoQd12e3SqhfjD55dYcvgjAYkguUmaT_slPXV1aZMBBXFzT2sbls_MBLk6H6bRae2lxCJA4bjb8z1qvBmoVx9TgWaMOpU4nOSsZAvkrddDnFgFyUOjmYxMy3ZA4uckisLYJil-Lw7Y2HPftv0GwdjvvrWuL'
p135
asg41
NsbsI1
g1
(g23
g3
Ntp136
Rp137
(dp138
g27
(dp139
I0
I2
sI1
I3
ssg29
I1
sg30
(dp140
I0
S'mTNil8Hdqi_ebLGVCvMmbGqNxpzfcNw_O39lyJ0ES7I='
p141
sI1
S'C7taPXfcRifzYp069awsAmx6Wc0bP0TKAC4j2iEu6QY='
p142
ssg34
g108
sg35
(lp143
S'gAAAAABbztpyzFMt2c2sXpxpMgL4g4sOHaQ9afNtZs-I-zATp_8wXvk3m7OWskgaHzSPhe2z5gOD5adDjIGxe9z0kNy6oF1nklrHcU_qFGKlB8VlI14P5NgfcQbC2HvFdML-EqDfBtC-_c_5HbP3IHMY5fxrpBuJM-_EVdPByLVUvbi8ITlN6vFlVK7mshwvnCMJijYKd_YijpODiZNSNPtaoYL4vMkpaRfGEnW4zJwcMxDjOxEJ2uDlEXLO_RfvsIw6xj36paTa'
p144
aS'gAAAAABbztpy8iZM_hqguJkkUfwKObxlDTKLJSYluA214LYrWhrzkY0-4ObIkZc-u-3ZBG4IQZ7pDbzgGfgU2dqT2EfbRlNP8vFTJMobCdZDz7T5jt9w-bU85SwiXVbLWQbabrylK46rKollU6IiGkYmgDImB16FGC0jr_EbGA6R1MIhUiNJEev9GTTLhNkqT7x74Nzytp24VqdiQKze6sw-oLnPr1uwZ0Ma9-jeSfycPqMCey1nlFnoO278t07tSOBjC6s_N93z'
p145
aS'gAAAAABbztpyvrERi36MCkmyGSB5UANSQwbdDkGpEOX4Z2m3smMxxvrWBlo6RZv9H6qbg7LQaUkbu0p4bXz3l7jFv5zBdXyebD0DhmW4zJxz4tjqWfjbX3n-V7edkxmrP0k8-9AqQUWbWcYaKc0ZYqXwAG_kErlDTqUGG9jkVXR_UMFcC5SSO1Twq-tHSV7KIOr0QdJX5cOWX07A-Zog6qmEgHga6eoU9dMmPTgELQ2On3m7PW4PWfX5gwa44gOFx1MlozZYR8A8'
p146
aS'gAAAAABbztpyqyueP6bKrC-ko9fnt0XMJFP0BO2m0Tgc9IRcuJaLG7Q6MeB1k5oMwUtpyCU1GQC8BGwAQbUFAhyOXhEH30E6pt0MsI6_5VkTvSwt-LY05odFIu0xrHDpizmSUWO2X_DCMsaVtim_N4itmd2HKWID3nLH2XhGcl4Ij9B3H1mTE63LC35Zwf_zjsMRXIS3G9n8u4_s9Mb4BrkqBkDWkV2eU_SZfQKAoUwb6pACKQz6TGkWqyyBxtwcJwtTl2yOFvJq'
p147
asg41
NsbsI2
g1
(g23
g3
Ntp148
Rp149
(dp150
g27
(dp151
I0
I0
sI1
I3
ssg29
I2
sg30
(dp152
I0
S'siDC0NXu3jDiE-zuTe2RjIXaHeUQgVuIFLEN-AwtEOA='
p153
sI1
S'nZl8mTnSwTge1Bccs88eAjOATDcTnVQr1RVi-R3rtBA='
p154
ssg34
g108
sg35
(lp155
S'gAAAAABbztpyjGUW6YNfns8h1Ts0so4gQjFnS3gUA49QEmQ-1pT0bhQ1VQQLRylYV9cf0SI-c29nFokxj4wPudFUKnl0ebG7RcZxPv4ctA2OqBfynbT4il5t3sJalWhqO0Z6c7fX6ZMTUGuloYJXQc_3QHW_Y5sBAtra83eKZbyXCkpk91Uys2ds7X-cz9v41J_-ec4parNhRSXVExQm9p-sF0OjRx1pB3H08RIHgJm8Dy3nudouLN5cM8gs5GZ16phUlR5QcqxT'
p156
aS'gAAAAABbztpyjTAALfpVUNLPXLU5pLwMYQrhzVyKEaSRlw7cCk430WNG0lzN4immfY8TpWezJ8SUP8mMhX3SiygzicBGsyZ4ETBz3YK9Z0dmeBm9pgmT6_Yht3uH4upOitFm6veRw6kxj_rRmCFFFYGampwitKJs9un3uZP5_DFIXg969mP5bcHOoc08UHgNMAVvAaD1QfsNEv8Gm2p4r5luPBtKGEsmvTKb-QThTilmQrvVvLQRhsDMH-wT9xAyLCYVureUVZK_'
p157
aS'gAAAAABbztpyS1YYg5tRxguPyKNFKWH8L6U1wAfGd6UusZBVcJFicSbPqvnvKQGN3ykFyXMNMhJtRSleXkiK5wZCyfU9jJNVL7pSIupvmWbrEgw-SHwuxv3i1yFc1Hf3dvE2RJ9BBrYeKdUntFqCuVtEerghzL42lBxJSudFJV1WuWeZVSH5t83rUVd63u2pqdC5iZErNRkveuaD6b_ogSEHzu5Zfaq70scbPKTvQRjGBhR_sIIX9wwqsar8idyg6EQ-kClo3Izy'
p158
aS'gAAAAABbztpycdi2wGVuKGNfDHTQAk6u7vxJXtN5s1vTaImYgsXJVclXggJdBpxDjxKJWOMHDFlV0AjLfnonI4Eh0sRVoxWpjKOIwxVRpd-Bp8Le8UWaLCD9ecdX9nU-VddvtcYQQDcP2-3aZaB4gwV_ESLohEWPPXExaLY0fL1RjFdyInp0XBJIS-jvB6bu90be-tnH4MjVC7BI6qO-4d7xYIXH9TUDq64IMF-ZhdpJuE9PX0PHIU3CEYpydT_K2feScg67rTkM'
p159
asg41
NsbsI3
g1
(g66
g3
Ntp160
Rp161
(dp162
g27
(dp163
I0
I0
sI1
I1
ssg29
I3
sg30
(dp164
I0
S'i0-SrtIPOCc1zdntF69v8JG0lKIHnrbV7UGREUdPDxw='
p165
sI1
S'YY7NyEWmSbApCgynS_26QiJ5VhvEBfVTvrp2nI4V_80='
p166
ssg34
g108
sg35
(lp167
S'gAAAAABbztpyG354fU4mTpxCc68G9kFBvHn-UK8ysX2VCLfYT-S9gj6bh9bXU0jsdXFaQ2GWat-GL39G_RC3UDJeVIbqboHkZ3Zn_CAconnwNXI4_TiTBapP9VpPLqfknetNhrdBA5CRVVaZhTCNVwF1_1FFMqqGqWflpAQncbHaqxtZF7rJrySogg50xbqrBk6-CAkUavZwxrFDOO-glRiVfS4Vcx5cBHv5BvPaf1wprA-YVB_FoDrCVTNSOPaoeOvE_8PkZSQN'
p168
aS'gAAAAABbztpyboTP5nRZdc7sBpyAxRDqtPnDDcSW2AGHUOkMG5fquGbsdgpLEgQlPcS-i16WBC5eJ-7UPAG9SVVGHIXGT_DzXLDcHdAxvTknUDNYKZffLP7qIu_2ORPfzCA9pmcYaGV9GjqrZSWzDmufuIlGFtByKp-GHRnWgBo1XUHrMJhH9ZJnBM4kdUhzaoHehuFgqiiH9d3ACNczqGGya5Bnte0_O1qFKwYF54Fv-lUwcEHnbF_CoVP5m8PJI4-D8cFrl4mH'
p169
aS'gAAAAABbztpyQZrb7ldhhPsF8x3BJ3kvXpatRTYiVsJIxfw6KzHMIWx99y6UOGgGlWWLHZocg7FK7HqWSYeJxu_8kcfjXqmZOEKTzWvibc6JekLhKMXLTvHdSj34QMRxCSaA7800NrSbhoG0MKphxSPmmWQxDI-I9lyOlNxX6nusIBAIuiXItYutbvWjFDbAAuz4qqhrYWk7XPuxnKr9E4h9ROVEe5b--6N506QtcyfG_FxsTHSrMNcu7LQhQjpnWbXSImWJt0XU'
p170
aS'gAAAAABbztpya1_uA939YmrDK1awdD2Urvo5T7VQJDr3tRHk4nwvod9iM0MDpQ_yQaqlH-AcXZJP8HSn-y_q3Z-A_zVbOgXHuegn7xAEQE_c0o-id9BEtd6WAbe7lgt4kAKJ2F3oIhoTRN-kpzTUAaYf1X_eW9GhWoZ6yL-XVWHYE4h5DCOG03n0I1l3plXaK5TSJkUYZ3eNIpVlPPoDQPcEe3S1aJGwRpia7uVnqcpjWUO80_14R_SaIQjSbJ5tninEpVwDiEMf'
p171
asg41
NsbsI4
g1
(g66
g3
Ntp172
Rp173
(dp174
g27
(dp175
I0
I1
sI1
I2
ssg29
I4
sg30
(dp176
I0
S'kSCv2Jrry_g5FBk_x7ZleyScMPqtFfoJ9u2vJRWr8_o='
p177
sI1
S'9t8tmJXajPgtLHf_UlKCO4DSt_TzXInbJYGg74kN8rk='
p178
ssg34
g108
sg35
(lp179
S'gAAAAABbztpy5B5315o7g47FvGupq3Ivz-zg4fpUeSWZ6gCx9vvCWe30ngKliH5nptScSYEp11O2IS12OfQYB8f7O26x8TRB_Oc_AvK-Pf486f1MZXMfcHZK2kDPc15mBwyQNsUKn4LpvinXxaX3u46GG_FMl9qGm-nOLSivyhXVANRU-HsBAemaPkOTXATXevfQJcf0AXAnEBe7tKijqsz3KyjMybkibc4N2Ogi7f44hpV0RctACmCL54GzX2H1-x6OcKnktoYM'
p180
aS'gAAAAABbztpyoG1N0W7bCxIaB5oM0asURqdhisuRW8fXwJjelDeOKnKN3DLCSa3Hg7c-4sLupKa0sw_j5EZkUavKjZvKn1RZpy5c7vSdE7BLpP_2GAUjIGcwlY-YJeqA9c0xc1BY8OeDqEHbbAX0iye20AudVi5dGykge7D39KNGZs8IZQBCt0jPQB4ENDX-Ze-HpX1Ya713I6zitgbG3KqeiAjWywamFdDpPuRW64GQw3HPTVgm_jWu6wW_RCP0mIv-STuVfjFy'
p181
aS'gAAAAABbztpyWEmC3_M1QMPZ7hPmPIaEFCbF5cJqOgflpsIHHKDOWUIkedSNrnfdYXBWYL_vxMCXi4zV-JdM6AyNM1Z5ns1mcO_b_SMF81p-ozfi2KxFYKuFSCeDK7aH_UfoozO3qjfIn3mUswAjLC9OUmzPsfBeG7oF6lKvcTtqlEfdxVm81mQNKxxpqwrQh2XZ3s0CyDD_RF2-pYcKMUzEc3O5PtjfWfhWSyJxZ2AvKBFxw24tk-P0ID3sXcPYJcdxg9dJ5n_u'
p182
aS'gAAAAABbztpyWid4rfaa25vp--k2i33Tjdff_todak_qw1CNdLLlg0TbYenXK2-XjyjTZ2Izx69aEr3IvAth2CmO1ClQuTiR2f2QUvau3r-0iOKtG0XfrMWIY-SgGRGp74bUdPr_Ajlx9NtG-qp2xH-AN4UPcwjy2TOCri-IRTDIJTiqmUu_rEnAQ9SwsvUqLSmKLMBnshWoZD3OIHAxNJFQh1OKCt6Xv1qjOaIw8dMJqlv87lDejhVdjQBRkjss8lQr6nzqs7Zj'
p183
asg41
NsbsI5
g1
(g91
g3
Ntp184
Rp185
(dp186
g27
(dp187
I0
I3
sI1
I4
ssg29
I5
sg30
(lp188
S'[0]'
p189
aS'[1]'
p190
asg34
g108
sg35
(lp191
S'gAAAAABbztpyCrDwHbfzpDZ4puOY1Up7n37KI6LnkGlORi1EGUlQh2SjKRMn95T8mHjCqJ8tJGeLpwj0dGdMZY41GJhlXPhjC454Ma-Y3v-BKccGjQarizHZasNN4-pDtrJgOuHt_2-BIeW_vlsYCVR0ggPqgLeBiZTD0Q3qsK7QdL38bBOqmmktVpdL-KskcDG-0r8EB6JFTkXHvpzMoRZLY3UFZMjDEw=='
p192
aS'gAAAAABbztpyv7XC9wP-8hcfuCBnFxRizrGFJsEXi2Wl8hbgMifLXW0WPW-yEVhnQ0vHEy2Ow73uulGs9f4mRAAYyAU7PRDDAz7x18h_Mk5uMIBLkyvsXzSngPbwRa2Gn091kwLri-61eUATQhJoC20LUkCACikA1Xh_Rzi9O04Q91S-lccDfgDmsAGOzSEfTeYm6vsDQ7hVpb8Zy8gApyHXOk4XqrXJ_w=='
p193
aS'gAAAAABbztpylobGurvRr7aU6Uvhrjbx1_J72WZeIa0IKHulS2LbKGQ-oUmssqCwB9P0rBmKQJaqVRk-XQ54uyVncFQhTLH5tU50Cg9FaXu3LouvcCeHFT9dl2LjWTF75Pp3aP4r-VcNHj2t5_51b8GsQRcf3KhtLzcTlgBCFO-ef0NiUPMWFNTOq4PIEMdtHYDSRgAaPljqZGqtu3gDwFK3GkoDVKuUOQ=='
p194
aS'gAAAAABbztpyiuD3EBbn1pZkCrhVOUxMD2ECztbLz2Av1g-aUI79PfUQOce1Mu1VI4XuvtUggOPbEhhvTeHic-GdaS2gaYjO6EgL5sSJ0AiPn-ozxRNTpnvlUOFpfQEGrfu21GcnBC1cIusNmEr06mn3XsbgKcxLLQDiPw_czzAMf45Z0j_I7L1yg3JQXmJHC2W6DEwUjbsVDahOOgWIZD0GLbpPZn1gGg=='
p195
asg41
Nsbssg104
I4
sg105
(lp196
I5
asbag1
(g2
g3
Ntp197
Rp198
(dp199
g7
(lp200
(dp201
I0
S'hWNzFSS2pQ4WZp4dGYmQTTMRs9it__4mUn3kt8MTxdk='
p202
sI1
S'kpbYln31NCohfiv53XoHMGvdxPhqP08LqkJ9woc21GI='
p203
sa(dp204
I0
S'WkqceltT5_2_3qKY8DyH3_q6lzWsL24mC9kXTnvj-k0='
p205
sI1
S'kzAO5y-6uuZC7bQlkeyXFPdhTrwMm10CZ6uPG6N0uBE='
p206
sa(dp207
I0
S'ybkjXKAUwJyYglG_Yr4DpXtoM9wrP026nF-Iy9KpaRY='
p208
sI1
S'DufVyA_Cdvpa-0DGWqIS4neu_8o5IPC9kNnWMC9ToH4='
p209
sa(dp210
I0
S'9UcckGDJcphhY9N75z4m8l48j2oP-ZDCLSd2YLwy-C8='
p211
sI1
S'UgNNebLOKc66MN2CWg9OevdXzMgcCJo-gq5ZATpxUQk='
p212
sasg21
(dp213
I0
g1
(g23
g3
Ntp214
Rp215
(dp216
g27
(dp217
I0
I0
sI1
I1
ssg29
I0
sg30
(dp218
I0
S'lDxrtyCEKahLg8QktuQLk2NxUPhBTjC0G9EAYeGXxcg='
p219
sI1
S'7LPqiDuF_1SMGIkY3_Tv157JaY4HJ0suRYnC3tbu16Q='
p220
ssg34
g198
sg35
(lp221
S'gAAAAABbztpyGuA3i_41mR17b-wIJbpDVno4yTBJAn6D261BDdLOVqHCj1Z7XtPNsAJUU6PoamDAUgu8P1F2j0diyVxFawfeZzqVwvznZpuSS9xQbBDfTG2uIY54XHwO_o1od4vVjYNUQm9vOfWQCWQt_KKEq-60w8_cqZNlnZfHGP3CJUDVYKjAAFQ8QXprvAck9xefeokkEMKzmPtBABelebPLJcIZGn1L1-_Vw0mUa45RtHp0OLA9S8qC090hiyI0ihiZmVzo'
p222
aS'gAAAAABbztpyOx-gjDksyXPGffdMI_aKsV7SantsBbzoADyhztdm66ZGBKukB2_FyRA-2O6UBi42QuwedBZEfY_tUDwl5fb_O_ZSdK7wAKJftDHc5_7uBXT_hwhzwibJxim1arZNTLybhNRDHdRbtFLLrwBbkajhFy_0T2nP6tWgVEnsHalu41tuJaA4whTvNPiXAjq30XsKT-ll670hKUv_F8Zajc-MKwE6wHa86N6jI8kfUuTyuIkf9ywjh7ZpdklFcqgAEhH3'
p223
aS'gAAAAABbztpyAP0Pypg3Y8yrwxg03zBJfmAuuQ95AX1Igsdp7NkYmV_eUzyc--HqXJfpoJrKConG2ozA_YVlhP4xFxn98YHtjuif37G8_SWYx7lwRYomD9VBEaTWkfX2dwSZSk-icZk6QBwwDP49XajIiZ4HW5b_ICP8HYL7Tu0gIJqMTrWF1BF2fcCXu6FKiTDTyzrFSF3MHNsf6Qc9X3dtg83xPl0I7oWiPr6feGAQd6R72Q0gTUyRsQFnZCNM13uD-SwPIf5n'
p224
aS'gAAAAABbztpyMDTEad37VR22bkzsTWMXoDeJZKqsUcVIiHeIsj32v505T-QTy0BU4Xq7LI2coiAjwBAxVcnnJzwVNPiRuEV4o06Va8nlxTTYeyftwjorYwrIeWEqy4gF_q1zLHFfvkIIMftplgP_eXJ17AKE9yMnfNwkO5oVLNFkmmbiXilLH8-m6R27AjdZCASFKGPWfdb1hg-zPyXqfU7Cx2p13gwwLCuOjBbxnJatNnVT8APQdjvq6r0DxbCjgOZmve3L2HPU'
p225
asg41
NsbsI1
g1
(g23
g3
Ntp226
Rp227
(dp228
g27
(dp229
I0
I2
sI1
I3
ssg29
I1
sg30
(dp230
I0
S'naqH0IC2ZEoVLAm5Em3JBc24NOALNW2vGbU5z-f8v_Q='
p231
sI1
S'jyULaqPw6QB0M1p80BCHZ9PQt3ZQ6l95a3zSzc4N90I='
p232
ssg34
g198
sg35
(lp233
S'gAAAAABbztpy7YgMI-HoChKpaq2Kg_dMljUfz1Yjd1A_sFqr_194tHOM0zbQt3fPrQe9ztFzGvtcLDNYuP3CrmTRWIYd0WWgJLas7xIrrvkcOAVqnIkzdDuMIik4Z4DXFiYEqXpBu6sOWvqmU-c70q00B48_NvwIMKVdQIJIuJFnfxHLvlpvjk92bKx8keYT6D5nrfKNU-siR4pxLie62LHHW5Vf6LWVPcBIl2aez58pz4U7HnRc_JPu5oCBV64W89pc23EQxlpN'
p234
aS'gAAAAABbztpyPKwJxvxXmnn707fPbeTASuXIEI8xiVvTwA7L42469Lc3DOHm_xqIs8uSHv3GyATLqfzkLB2hqw_VJ98I4JCx0AzhL28NPnkmDwLoedboPmT3ep4fLvWpMVdZHpmAZQKHG4ic0zGBp7bbDwgUt6ZzcRLOuXteN3OYT9x_Igx8gtPygRwCR99_kJFHNMnC0RROgGQAVD_hBSnB5gi80N13TAFzWaLsrUnc4Ij0cbEwgQ_sZWmeBFXeZuVUi8Prlfgt'
p235
aS'gAAAAABbztpyxajjAj3BuKdOCTQwvmbWunL40CLnsH_yuX4Zx2PlATC-mlf674cAt5CO_cph6GpWeaeHjICDrmNefVa7F9eZ6z63LE6fkGj98gN0tT9X4RW835rUhUnw0UWGolptLofQwVA_akDAWuJnql3yTIIZXGTg8SvCVBLYj4VvHCZ_bvCgbvnLg5CZgY7OEqVrSlCk7wE9tFI29U3fdCL9h7nc2lSjcqZPzgNRvM_1ogDU1jiCPY6OkhBUbZk0WuHaXGFQ'
p236
aS'gAAAAABbztpyof2c4xIV4LST8DK60NGrJNc3dHoEGItlRH9FaJLe5osPcGujyfRGNfxmFIUVtn2KRsnx_jqvvi-2hKtOO6jNiAfNIuAJ_IIf5gHNn4lq2BgIslpH7TGqvwREdTQzfDN9FqsOcz69sdgBWZkUQt98sToyoQKdMOkifO8riQJfUH9lfGNVNGLtNwRPoWrx9IdlYUHEI6ca1pa3GWAnpqRrnJ6BXm077yyhGOidb7YZz0i_ITnCy0e5wsMzNa2msyQE'
p237
asg41
NsbsI2
g1
(g23
g3
Ntp238
Rp239
(dp240
g27
(dp241
I0
I0
sI1
I3
ssg29
I2
sg30
(dp242
I0
S'HabS4CopSwKMB3uyDcj9l6LshcQ8yFjUiyYA5S4Av5U='
p243
sI1
S'2vJ3zfxQ7rqfqo7lU74ex2oA_FATbblFfWsyrQOoadE='
p244
ssg34
g198
sg35
(lp245
S'gAAAAABbztpyfRkYqhWzAL6OVBY0E0_343jUlMV2sJUyQQheciCqyOGDlQcV4SCl7QSHqelaAbFYyRzc5bC8X4C1PN-wfboIn0nNh7rHGjKHQ7AezywKXxZlZYSr39wTmQoBcKzt-Jbg8ref1s2B2aybxC-OH3vcActyDJCAFbP1SochXUo6gxCoORsYwej5TPu_SVxc2Rc7GZujcnKsEFnV3Ra1he2hzdQGV9avW_iZnbKsgoCYoGzt9OuRXjYVNh0JhVig5YLB'
p246
aS'gAAAAABbztpy8UXjxsf-pCWA6bFbh4oTdxzbQqxbun5dssJZiWDYQUvdig0TLTlR08zP7CzqJdN09Y2smrKfxR6r1EF3SHuADMmGO7GW59qg1A2PvnMuYwo1b6z58ZORpIEoE8buiYWt0DFmjX3cTKY0JMvZo3mWWo2QK8q5bsk-2DamFxj3Zi2ghavQgte_zdDf2TIf7uEfNuCU4P-HhHiJruiODt10SRpLr1qEf3s0XC2TYtIt7P3Sq8lx65Vx29B44S8f4KzC'
p247
aS'gAAAAABbztpy-HQhXa8_Hly7Ear3r4K-CwR-HvIiPZcsC50mgsHFGtk98ptAPSC13U7Czlr2rV8HW8pZgKb-F_vD8wnqhhaAMH4IOnHzeYtl9lcY4YpNWx1h-BimsI2XsJaEWay6EoxhhRe-3T_F1YErhUc8ukQtVh6Wg4DFaj-CgAOfMdN8JpQTcW43a80J5XFcuH_BZ4NLZ83KXiYfzhQzn5MuO3uM6JABZTwf3YiYLO-XrCh3AOPfsBdOk7ENKv-By3L-JN0G'
p248
aS'gAAAAABbztpyioyA6nTzn3AUHMTYlu2C4ES_hvloUTOS09pPbLij-adizEVlVl6qx-wKdmobffALx1pdqeMD_ux1jGMNYO8H5V8TgubPg_aX2gdG8_X0vf6ifpRkJDRk6wCiVzjPZLWvl7lUzQgfUVWko38xT0_7g5vT49ExAhg6wn_kQd56ArscCYDJt6qmihJmPcaOwLazyoGkuAUKvfLM41VNs_aqTTAL3rsmc2FkjfbCFctV2q95eBq3321dgpUsTg911n-w'
p249
asg41
NsbsI3
g1
(g66
g3
Ntp250
Rp251
(dp252
g27
(dp253
I0
I0
sI1
I1
ssg29
I3
sg30
(dp254
I0
S'ZZ3XVUPxsWZudT07YKKyq8cRfO-CHFvtfj-7VTtHu8U='
p255
sI1
S'7n0Hbw-9TsdjCX_qqBYEoFbXmgbasbLoJVcLMZjITRs='
p256
ssg34
g198
sg35
(lp257
S'gAAAAABbztpyR5Bg9mEIntpKRAuYkyHK8dNKeseA40OBCM1gbK3ke6Jqi70J_akzi-UIRvFsB7mCvCO4XVx76KVEmYANS7r1CETK9AF6KsK0C_RY_k4siPlmVEWkEeKdNk097AuQz6HU5oJ7VLw3ioQTqRRPEf6tHtAZRmyZ1qaoJb-lgnQHp_9qGC6L084pw561JDNrET8hF51sVkPMkRA1tD6VcqlhB2WyqGQfUbpRmFVshHNH75-BDUSQUqjomiv6LIuT_or1'
p258
aS'gAAAAABbztpy3rLH_Qy6bi_Hz69A4Lk6h21Gvn7tx3SBXXFKU9DD2jN3oxwbEvnzvyy05n2hJtDmImvBwNLdYxG5ebg_8MYx2ClLmx8ahHJ3psAgld_ywlL6D5dHsw-4KmhFz3GqJ1zXBjpRCwnMfHJJIBVlUpJ8YciJp2AQgM1iUAZRj5bMpSSlc876wt-x27jxDNorvIog7X8nJzbommTXHAlPU3GCd--YNXjbNLwG1BWQfmtIA1TLBVYKwaTVJYXEynUZ_Fgu'
p259
aS'gAAAAABbztpy_IQXVaSD8NuHSF_r-HWfkrXdIvuF48xAKFN71JrFpePXd0Ipu89qce4V6Z3Qq8Mi5eL-3NGfLoQegtgFRahBeOAMwYKWcTGAwCVZM09HoBf1XVCWpAjBk5uDVDJ3b_rsIImn7QS2ZwuJE8shd_bS5jZJ3R_zOLE9KHmB_kGc0Ll47eOwoPr8ce8DbhtZ7FSrPXiYv3LccF4FXHm3qaV_Chm0RAa9ha3zTcIaVLu0PAX2GMODcqP7WJkIJkzyqriw'
p260
aS'gAAAAABbztpyg0BhGH8j9FNDeZIRdSxpXrjrvwQ9rhKTFOqBrNodlJpwMISRsBgReofJkVSr2JJ7tELCd1ojWlAzEyF4ZamazCYeEe7OYlSKYOmC3eQQAo6jwDFD1SlQVUVwz2Dwf3hrTca5D_jC6vk5fJ4YNUhjjAhWUQTwZ6S4-ewJ4hMbQA7oLfvTSVnbm5epNXjSM3QNa1aaxHXYPiRdvPzscGkLgrv8WNk9UcP_Ae4CQUustdJrQcmnWZzSb3_ftzTVLKnP'
p261
asg41
NsbsI4
g1
(g66
g3
Ntp262
Rp263
(dp264
g27
(dp265
I0
I1
sI1
I2
ssg29
I4
sg30
(dp266
I0
S'KpBsJeckP1fpias3hnTbHgjUwYDr1OOX_OOKFKYvJSE='
p267
sI1
S'SiGqaye16XEXfn95dtx9mgZDd4k8fibTV-ZkHxcpDNI='
p268
ssg34
g198
sg35
(lp269
S'gAAAAABbztpyuf1QILnMqeaB2YuFXYeLbsLrBbt7r9Ws2_2FCXcB8HM8FwRyvGv2e5u0WaNoaLKHoOsPGD5DzvF_VPd6a433BOGCebsz1na6HmvTCTVmcKR20osLoMiMyWw5v6ffyN2F4VCj6Sm7aFJLvLUBXGcRwyGF__yNvrESddLSgNG9-DxlsgX7rm5Tq8eMAYAB26AAaLYUE5XobHZWATQ23bMgY-5VY7bBis25L3rM-LgQ5nwAbO3sOQUU8KRpiWzAHGRO'
p270
aS'gAAAAABbztpyhHBdtiwmSt8PiVqK9ztngfyxjX3S-YA7MTKUIizedYW3hvtGbo72iLE5ZBEqRB7aQrWfN1aDoQmFAHQSAhnS1cUW0YwqR9GWE6PoUQCaAO_O_7LCQnXeMWRh2Nw5rT0j43YNSLupkhUgjNdsVb5a2EvGWw8ltL9Eu370UE0Fxo1Y1wMWHGZTP6h3C0O7v3bjIPn8v5zQmYGu4scGdb2uyFu8IGhin7k_GCizUJWhIpmwcvC5S0b44ncZSHtj7zeo'
p271
aS'gAAAAABbztpyfqqIRlsSXFSVvT95fgp6ngn1tyrbuh46cOIBeG8V__ef6PEmWRJNgMUKMSFKIrSEi_SPaWrn8EIqdSM2Wdg3dRUvD7kFMnGUQZsI8bnNMObVl5XFLHN_NMKGA3OWYC4WyBOOuliahdYHL8yo85C3VDp69y6LACXIIjiI1VzMcwRxOaLmFOexQXXmILi-sqPdNNL7_7RfjA0S-KK2QodcrLir5vx2SAsIAWA7OVf0xzP3SmetpVzE62k8LUD4BL6k'
p272
aS'gAAAAABbztpye3EKz10AluE34m9DlNYPCI7Jd_WPErXUDqP2o1OTNwnYXk7aX4ajPKofW_EQwnfUilY2ZKexplk6-YIOwr4PDkTljdIlIqxDaztmsGSbB22XPe2XU9D5bsxrYOQx-3gg1sGYMLwIxowAWmPvakWqoVihv08kJx8VkzSFzIU6hxIPOTsX4pjWj_vSblY7nma7dD07kdJ9Juv7N2kGLggPt4DmtcCDIZlBpyVu9JA1EGEj_NFr4MYW0rL2u2yR5txg'
p273
asg41
NsbsI5
g1
(g91
g3
Ntp274
Rp275
(dp276
g27
(dp277
I0
I3
sI1
I4
ssg29
I5
sg30
(lp278
S'[0]'
p279
aS'[1]'
p280
asg34
g198
sg35
(lp281
S'gAAAAABbztpyNmFQwXZxGz2DtIkPfIbADu-d_syOA76uAjT6B4NWQ3JafKPaXrRQuoAiuY2J4lEpFZ4cd1V3YuTG-hCcRADhWnblzclZdBK8ggJpe_ZYFCzP-awmkK9sCic7F5emLjx5vM_fjoUfH8jcDffgHE7zrnC_5kh9oru88lYibzbLpM11BOwQKy0PLhgatUSWey5ohrOMfhp7ATdimsRbTuFwLw=='
p282
aS'gAAAAABbztpyhW0qaV9lfrfCMoMjEyxLJjAa-nQzW7MX1hoRC9qsYX8QeOOt2XAxQLfSi28VlrtzToNDmm1CzSWDFg1OK5H7nmLGG6xXuYke753GdwvwTnXaoP5pTpEk1nfqhgjlcy4NDjFvQGhmtMh3erbrVzRBNLuKCaq0dzkJHd2hNpVcgiKw349PQN-VwKTnM9C5tF8LJXy20efMfQ9ECKkH0ZUX2w=='
p283
aS'gAAAAABbztpyqcl5A-KJRbGk6SihI-w68B5vzFUPB67xSkWjMNX_ArA4AOU3eVmhVJCHwx7ikG0QOfS9tH7uh1OIGYcTMWqsKvgqn_GRqCYZJWBSC1KF2ktwaEw7OU2K7861jJtQm4QRT4A5uDmWPmt4ZA8_nY5jbh2ptfL0CC9WP8pkdwnuLmprEe7jb-rmTTFdjXr9TUc-rqCqrjXblHoLSYrmZTi82Q=='
p284
aS'gAAAAABbztpyJsjdBIrL2ilWcRgVJLn7wv2Ihsu1cIs2UDMhIrnxVOir9CvCkLlleLghgMQLyzg7L7Hd1qAsXoRF92fgnIjwekj4TiEkkQiwbnsgzmsgw5HjTU8JDRQIh87CtpZeIfUmw7BCL_L-S_DsRTcMAUWLscPvQZdK0oWvGRYWgeOsPmpeuLSbm0kOWLwsniPgYnyBtbSqxanAIh_NfBy14sxttw=='
p285
asg41
Nsbssg104
I4
sg105
(lp286
I5
asbag1
(g2
g3
Ntp287
Rp288
(dp289
g7
(lp290
(dp291
I0
S'zeT5Sw_8ecsbRdU9j6DbdktdhwFEZ92Vbt9HIi-kNr8='
p292
sI1
S'GPY7BdXrKe-nnLz0YGEImOBaVuVQQVaXfG_ll1VfJCY='
p293
sa(dp294
I0
S'hHC9WvJslqgj5fBs49fiG7Oy08jdqEOhKHVlcMKhdys='
p295
sI1
S'uyuXC8-NRDjftjiajhSx7vF9pC0Q7PfAPszgUYFyaqI='
p296
sa(dp297
I0
S'svTtbJmK91bKturMP4NMSBVmcmX09-Y8Ck1pROf63to='
p298
sI1
S'FKzmQ4Q_jYIHwLuwOFsgLQbKnBBEAbziC_UqSTsdSuM='
p299
sa(dp300
I0
S'DqqxXFlyRJJOBHwNhA8cVX0RCQpDoM01qky5VeOtEEo='
p301
sI1
S'58I3o5mzdGyI1j6cSxaHXe8V3ppg4iHjuHvQIJetswY='
p302
sasg21
(dp303
I0
g1
(g23
g3
Ntp304
Rp305
(dp306
g27
(dp307
I0
I0
sI1
I1
ssg29
I0
sg30
(dp308
I0
S'DA0l_ixyROUxRVWlm8ZmjsN2WDmI3YYgAhsxlCjuguA='
p309
sI1
S'MEGIcsfBP_YtgQi7AtTYpuulWuMG2EuQ_LeDp94ng98='
p310
ssg34
g288
sg35
(lp311
S'gAAAAABbztpy14_DTTudJ8UI8NPO3lrkPWV17u2LG_ZHpgZS-gCPB6APyA5l4O72XkVJoOGHV-_bliRYYyUw64oOeQ_6tRN3KQbAAGbJZ9aRO7Qk2kNdQM3XPTKcCg0IVcTxWj5aIn9Xll28oDOWP_PQhAncIxrVMvl7WX7AK4gMX1z7LkZz_XhNvdUS6ifXKvyAwzQ8F6IJB4jwJ1V3r1nyEluV33Ftse_SbtMYHqRSoUFgSVQMxf7-8Pgs8C2-jJSahARtd31O'
p312
aS'gAAAAABbztpylpDGwchbnPSafoUEaWC0KEZrJFaiNTGTyF4rHFHP27o5e3aUlvd0wSSNKHMufbdPz18jZ2EeD8UXcENQmYABRtNw8ZMJ7ljsyxL3KF4dRuZmJNlBkp6qFRn0s5zRJGY5oYZTx8V-aSMrzyBKvpcee2p_uRjfLuMVDQMjWMKTne5LszFMGF3MHRq7ifD7Q9IOn1nZK5UaNom589vKAJR5Y7PRoytOahpibkTb2WYLFU75tYa6vAv71PxYxZczdufP'
p313
aS'gAAAAABbztpyyuFEzmSfl8tyqLB-0mqfgccpxoecSNJk6a3AbZj25rQMTf27WQiIdSuhqwQw1O4iPUmXP-DdIJj84TCEZ9w8Pk4-Bm9W0ExwJZZz7BXzKOUm7sZ3wqrZggHbvLwuA95ohjp4eyu8aKeEw8Q1LIku58xcks1elyqHsmdx-WdthatFP3MRJWgMMH8hAsx7CA3iljZjtWuvAnDEAjgCKVgjTO9_Vsf9O74TowJe_6UJquZlG04MeXfnRe3Q1W9ASyoO'
p314
aS'gAAAAABbztpyeh7C5Pu6H_-g6hqm6ahQd4PjL7oOEX5DbVjirOqPSO6fSVQP6nYGl4xp0j98dYBwNIjkUmwurUfbIT83bRmjWf9ZJLPiHVJaE1B3oMlSnqAi-eA3hZ8-1qAFB1_7tjpqp3VsSc35mR-ePC8CU4g9ZXVXSMN3PgGr0d8UwwrQhdYh97VEAm5u2JBG7ZPnzUSiYZWmhf-7lA6IW5xSSbFuXyV3Ormpe9Bi27Mdrp4A2CfP4KCR-doSv8noceRcLe0J'
p315
asg41
NsbsI1
g1
(g23
g3
Ntp316
Rp317
(dp318
g27
(dp319
I0
I2
sI1
I3
ssg29
I1
sg30
(dp320
I0
S'G1XQDGqUEqnWdCtsabTXMJUi7Ga_TcvtfjfVuaeloNo='
p321
sI1
S'ZjRKqrT9AiWcAi-zD0boT5EePMp4baKzTBV6k7ZBr0g='
p322
ssg34
g288
sg35
(lp323
S'gAAAAABbztpyVPf54PVZ4shYBXRqflqhqlIXqTFY89VvpOYmjxl56hyc_rVSctgneZeY3VczHUXHolYZhk0OHqRzM854epSkmVlgfcjl2OOrT0xcfzz8Jiio4zELoy6yV2gcnd0ByLT4NxhRwTfYy4feWtWVoR0oXRXyrhyBIOwiY8k49VFoi8-xr2z04-czR69Jhxc4D6KfHtAjdt1hp1bxSty7CBA-60ebQ5WaJysX8gdM_ZIE4dZQCdp_Ms_WNl3FwOpIl5g7'
p324
aS'gAAAAABbztpyNy8od4HiO72d4yaFDcsda2N9Y_LX4Nf4nEPeW6HOQQEU9wTMufQiW78dd7pXnmCPF3GAF7X-4iVId-ZZ5nV-P19FG0zX9aOhPfqX5PXdMeJYRMvF1DqI128jQ369pUtQdL1PSHpU0A9_iqSVbgLvJ8dJ4L4a7RKA3b-N-WxiV8YaxwLWBacD8Y8Uf81ZraIMKEOoNzMonChEWJRvJ5sIaVUpypzSZjTUCq4-m7qQreVKZhgfGHX7rXnQhW6EVygD'
p325
aS'gAAAAABbztpyZnWoJwMxq91FK_cV0A0gNEd-P2FFWmlkxEukmhgOP50mQBlBjtzMTTV0OBzYAd-pJcGXwmMY-KyqlpXKQ5R2eP_m7e0keWJZWfMdp6BiFYZf-i0pOR7-WisfL1pf03lxl73aQNkHiIyjBiqFcuqzx4qQ79s5ldahGq2RoGhoCer0mxIsrLjcHtDlMC3V7OsmTch7E6jaebh8nsXOzRqqapdUGWdhxlPdiGdQuj-85PoXx7xrdPDm1DeGlisbODtu'
p326
aS'gAAAAABbztpyWNeImdebp-hwt55JShRjZD-u87jEq5WPSmKAOYxCAndK15ca20ZYIyyGqSoRa4S_XOGEaLga-CDzoX2YJKqpwyhKRjC1iD7e14Rbtc9IrtB08VPKstKODfL_9-ixz7KEnof3ES8xc4daun9mAxoObu6GOUu5tm9h1dYN4XAnV89QMH8UchgXOGKY0rTLorGpuyMZFQ1t20HVgVTH9JSToCEPjfaNpcTrx4pVNyB7ZwMAToB1xbV459eu5kL6RaXr'
p327
asg41
NsbsI2
g1
(g23
g3
Ntp328
Rp329
(dp330
g27
(dp331
I0
I0
sI1
I3
ssg29
I2
sg30
(dp332
I0
S'Lf7OQR0VmecU19OPewM5uPYCPvgffVHjKA0oifWo1oU='
p333
sI1
S'm0lYNrNqhOWVYN-d9nHQ722_iescC77CRYI9wUxxY7w='
p334
ssg34
g288
sg35
(lp335
S'gAAAAABbztpy7vYfWQtjlQUYgaT5FmYDw1MA3W9rp8pWmJb8AFbEQV-EeF0jzsg3J4hmFdOErfPhQClO-21iCVfIWNoafPAlf3n7j_FcNdkMEGmqZsEzIJSem4W2PYgEQZWzr-_L042peIP1a2SoNABq7x1KXXFvtDIi64sFjZ2-qNdegc73PZui-eR86Vxs-id-_n5vkQn3RqqdBfU8a6oeQJGHFtL7RnuHjORNe5piNwmIr12O3lA4g_KjAgVaIS1vAee4lon3'
p336
aS'gAAAAABbztpyr9BfLnCg94QHgoPrlD13ozHNTaBlZ9T3Uwg5hbDudLFo9W9-8z5Gzb_8repqXB1vZwbz64-s2Scxi8_YUBLULI76Mcp1ax2Ng0ofg7WsSHe6_8ZwjVWn7WW546_AfsQs9lxOYkxFI9UdpqPkS6VlBbBO7tZfQ61IszND3c6wVFG0BBJHFrVscL5pNFYtw3P4RFHfvuuVu2tefJ6lZRXxU_4zt6uXuuhr7zaTRjQMxVLIj9_jVivB2fmHY1up_bGT'
p337
aS'gAAAAABbztpy4SiIjKQV7EznOztoUz51yZUSZ0sSEy48eAHqFMd-Cp6bx30FE3fALKnAjXVnQtztG4xz3xMMEYGiq13V2v0U7uCyoS4sB5nmuG6cgktu_lrlaniwUJAPK42988qFy4cKA7ODxKyA35jqXuMps2UFVDeT4ZvjdGSLVZo1hGMEeDpgFtypppt5k0Cj4eB4x6UuVbaBi_vjrJ-6BKcx7MyP2Gid0vwL0EMhQs9soVgW4ijmnmV6220DF33mcSgGbA45'
p338
aS'gAAAAABbztpyzQq7qr4SyMSjykfXz10LsjCIppAd_vpxX-KX3lJ4IrTBLBQaPbtSlfTIICfTnUUpokqRGxnTxaOa47AqdN62TxlP8TRycXQ8WgH1oNltMZiFA6yRYo6nuru85jh0OpgQ7e9-3K-zWxtyVjD_P2TU7HImTLfzD5pN37kxuafRM8dbU6XaKr_vwMyMQZWxR8BwFM8SNqagniRnFsi5v_ZI5Td7lZsfqgDAF2jqdv3rk7GtIrfFfVOJ7Ckp_ypkSltO'
p339
asg41
NsbsI3
g1
(g66
g3
Ntp340
Rp341
(dp342
g27
(dp343
I0
I0
sI1
I1
ssg29
I3
sg30
(dp344
I0
S'RYbEfirnKXYCmCZTq6Oz5rpgV7yl_zgdrlHtJHbTKcU='
p345
sI1
S'eQxnEnMA2yS1y7D6StFj_b_ql__u8gy_XveZRcMOmB0='
p346
ssg34
g288
sg35
(lp347
S'gAAAAABbztpyEVBIMKE8XAK0-YcVbt8UDtduegB-KPXJttOX0gVWBwfBY5o1rkeVqsWuuLb3IVt46ByrbifQSo8NTfSlCxDEFBOd2sEQWc_Wo_tnjnhbSH2cWu8EdWcwI4uujIWhPfKATn4Ht3Q-dHQ-g_6BmdSgSxRT8z7O4yqRiHi1n527ewiHrIHNhYDGMhA4pr3jVLj_BMwD7tkqv29AKo3fOM_kXv3baLiQ-_SLwH5a2LA4z2QaYwWdH--1W8CyqbABwlBq'
p348
aS'gAAAAABbztpyVd-rMXW_Dh_mS9gKhKYjuHxc-UVZMuyu-94BPTqE49_ijAYjmucwGz9jkAwpowzMrQ5XydTjrqJk-043q6DD3yTybpVhn0IodE2MSj2FCB5PTitnP5pFCoSbdTvVlJgiNWCwTK3KbD63ORpecSKjiUOUBWn0gLGv8F-1Xw2CMqBPGXe4M53AP6B5VNO5gZWEt3Dsw0naXVYX5Oi5sa1rmOfuWRDDRAY02oB408nspmWxnZWflyit468rgZ367VR6'
p349
aS'gAAAAABbztpyKDebK2AWXDoi3a1YzPlrRaLt7QqpMySyMwjCQ1Rmct_j48bg_CEMDHxwRO4AqYlmIC7RCz5Zwr0G8AzBVaK9C4iLWenGbyfvx0Jc02whFPRIDeBcseXSTJfgRaZIC3ZW-xuUpgvd7F789YhMriX9BujA3iPFmWijz5t_9Ou0d9aPeLa80m2vRBD4LInPeXMR5bHOqKWI2am35zr3sbTkS377PRBpbHwqNmP48B2mNlgOgMs1M9QarQgOgnpbHxmL'
p350
aS'gAAAAABbztpy_zwndaTcNTIuKU5K3bnwDjbt-j4thpW-AsvqdRJSxvwhp7PCvtaoucKdoxY1zDT-3_Ty9OlYPDSNEt7WRVmFDHveyACGwtUI-KxdahGDZumsZhGRkQWt_gES4aURwf2I6g9riDcTixHwwblST8sMByw7eqmTe5G-GcCBCZKWEYmLElXdbhmTgmKPMOwyN038EKa5k-CVIIVthUetqCSB7qWqpKCSeNp927GIEy8xyLZewWP17hFapfY2t3TpdGjf'
p351
asg41
NsbsI4
g1
(g66
g3
Ntp352
Rp353
(dp354
g27
(dp355
I0
I1
sI1
I2
ssg29
I4
sg30
(dp356
I0
S'tl_cX4vUqGJ_5uQdXS-ZT29p14poS90TYZ07q_GBzlw='
p357
sI1
S'4ufbFgSTqNa-X5n_S7NA3ZEnwuZdf3wS8hoS7OYTa9M='
p358
ssg34
g288
sg35
(lp359
S'gAAAAABbztpyDAZlBDDJR3K5Ac2lISdKrGoDgJDIiIq7nTDp-3DwKK8lF4sfUQIZJejWXpLQLQT1319ARzUaSeJrsp6J1zHTGU0o8fknKf-y62pARGcCYYLueW0WJOgjoCge1_NkdG14A1qJKHRxr1bI-NYiZvxyfMzL2Y_fIzlF_wrHTbdsRdQgGbT2YMYPI2HO4rIwEPz9AJe-ZG7k8472oTEkZh5kIuu3DolPv2BVYHHb2btx_o2yXsGCXOCYHvEnM7hsvFQj'
p360
aS'gAAAAABbztpyqe7oivHEsJ7LICfcYo0kYcP29gYcn0JcBdKBpFz-Be5irt4TVZny9DjiZWr4g-KZmD_CXu2i7Ki5zoRWsiShTk21dDPZhk3gKG0hEzf5BgvRC-NyNyrVLiewZTEAisWjNpwoVJCTKCiN13A7pzKyYqZJNRORnQdQB2r8GgKHnMNzdKxMCtpdwokvggip20YfxLfFjaCetJBIbrUtfwsCeINtlOTx8qBL_HSE7uxOGcubj8lCUI3DsU55LHkFP9j6'
p361
aS'gAAAAABbztpyBhX4dTPQvaxSkol7NYRIccH-FppPrRpTmb2-CrG8sZpq_U6H1FjWK_KY4ekSm7BOXVOOrLakvhpPjtC80eXE_aPJsQkkCDdx6phzlZ0jYSHEIFfRxzwslFXr5NNc62_HcPYM5a9B_teBZpjbqk9jlN4WQ1p1lkSDhvKdiZ8l0cS72kTQSUszqpaPi7YMSJINce_oZ30llEOHRr_jSWWLVFEOTtdxPDYiVjbpIlCiymhPLAWCCpYivgXdSLQQJgml'
p362
aS'gAAAAABbztpyvkilGglHPBn1igX35pzJnuHVCbTZhgIQBuST6iLtbriAUVgqjuDGUVf0nzzgGwpTpAsApItHUNnp7ngBGdDsl-x1wNBdo7qxUC6m4QmWJx8tF4wKXMIfIvmbI19Y1qVrBA159gnQyb7O5ueT9wB_ZAeivaXkTmH4Bx_d6HIep2YEa_QPcc5Ja__8PRlFos6vFBCRkZ5bbLx6apSDfMhnKbSh9b_yQ_D2wBSQbdTJshnRYb0r4qpHhGP03vU1MU1n'
p363
asg41
NsbsI5
g1
(g91
g3
Ntp364
Rp365
(dp366
g27
(dp367
I0
I3
sI1
I4
ssg29
I5
sg30
(lp368
S'[0]'
p369
aS'[1]'
p370
asg34
g288
sg35
(lp371
S'gAAAAABbztpyXjQlfZd2ogStOdu99eZjYgSAFmmkwVTXpOx54ugFpUFrpc5Di2AtXx0C-acMZrO54Rl_6mWMbBmgZaekkm7U4pM0KoXphTMq4cEFNAeD8UObj1L4yMYnSHDdyDtFl55Bra2sqBaSqd4nvcVEPkMuroWCWaVzrsxNZwV3Un8MIIE3DhyMEOmasBpe6mhWjraT0ynOWV57-UQjZDz_gHrUHQ=='
p372
aS'gAAAAABbztpycJgI_rRPzUGAWU09TeDPQC6JgW8YDf_-30s46SPcZ7KH6xJ2KJZbR_8eA0xe5pbUdXzhMCmGQnO874ui0S8E24tOd0BXwpZgqwlA-kmdRWFg54fnIkWNdoyFH3zk6grz01XN8TmLUmRZbb6dSchJOIsMQ6GxK-ZSh-8e-QsBD7rPUybORpPRM9ykHPFC6GhgqwsT3NO79ixpEENJp_wCLA=='
p373
aS'gAAAAABbztpy65nZ3rhkjU6ykhXzy71KJnhZ7VXu5fn8ckgLFf4ijnVOVTP1qAAHeoOOMOj07n3OJio_nyCrwMHvzEn_9N6TzhYz9MMTwaMUQ5VxOZmG6H3x6qabhdkWy69nM_3t1qyaGbMX10vFo2ymt0mt9wTDurLKLCS4DB0QLwMNdfBMelfwirB8RoBziASQu4RiAdMsJJftvoDsO-xt7yvlefUBaQ=='
p374
aS'gAAAAABbztpytr6ZRzrQS2YFKpUGTOgRjG2JSw9wQUyzxd0pffmhfnDqO7hJOPGqc02hCjRZ7B_5wHc8P-jVU968QwCdQyqhiMJAOHcBOkSHtLRWLV2EDZP7vXhARgR6Z_HEq-ST7fF9HH4RRvEPbeUlVcblMprw8YApyvAk-6HVghULZXg4LK-8hyV85ybWIlNktxgh-GMGVJZceY2jE1-lHGilrqx1lw=='
p375
asg41
Nsbssg104
I4
sg105
(lp376
I5
asbag1
(g2
g3
Ntp377
Rp378
(dp379
g7
(lp380
(dp381
I0
S'rq4GSBiNvJFLZcqDGEin8kVIIwOFE4h8XBtembwydxQ='
p382
sI1
S'jS5UPgMlI20b3W8_48Y0QQFfrG2NmE_unGvcgRZYPWg='
p383
sa(dp384
I0
S'_QokeH_FOAC3gNnttTLM0KTPyGBqRF5RxhIyVc-uid8='
p385
sI1
S'kDstB75PkV9NmsuJgUVljLBhYjV1xuW4hqxk4UxUq4g='
p386
sa(dp387
I0
S'Hno5GzJlDiohxRbwNOnsRQzGSZu9sO94ZzGx3MwxC6Q='
p388
sI1
S'QVw_WyaRmNlUbJpkwWstUGLruXERsCShjPRC1BI83HA='
p389
sa(dp390
I0
S'tLx8p_WU6ODGieP2Z0YbjrBTug-kws3yexAtL8oMd54='
p391
sI1
S'neuDFXLUSXeMXe23Sr708gk_0XjyRdL3q0G7uhmpiJA='
p392
sasg21
(dp393
I0
g1
(g23
g3
Ntp394
Rp395
(dp396
g27
(dp397
I0
I0
sI1
I1
ssg29
I0
sg30
(dp398
I0
S'OZJSK0lHu-g_7Uf0E-gXC2RizmL9T_jaZCKa51rV8G4='
p399
sI1
S'HqUmm5x4KYQxifrF-pO4Kojz51C3GQC5m_FAzsm93UA='
p400
ssg34
g378
sg35
(lp401
S'gAAAAABbztpy6vRUzfo2uYX9bInd2_Y0S4BezODOjdrYMTbs0nlFhZcKe1xObk9DqFkhMkKgKQgkh-b7XSSVGTBiQ6symh3dOx3XvdL4R0iTHY-wHyS_1fJQaafqOeOPijYmtJnZ_EgJ6WqNwF53iN3dnjKc5b5K3_uSvjht7qpqzvB-yWktRwrNEF6LQJcZPSwXOkRM5pRqtv3t052Tv461t1QpVeYIcRrUxhFGI5Uc5JiNeCpF5UPb17PNhRnyVzurdhTtLMOA'
p402
aS'gAAAAABbztpyP2jfMGaIbFuOK0MwNjlmOpvMHZRWV1-EpMSuq6urAXO5tpyzW82mKyCzI5un1WYjFR3d1FP0Xv7xRdhrouaVR5j7aL3cmRByyhfr1FM8krBCT02doDkb6bjRN484NPnNhbVQksboMtEvsSJB6GsTUCXELgExB5tkcIrUjwLR1zK8dsqEqTmAmRs3Gb1LNhb6_fw_P725zcLyF2gNsx1Wv6pbO2lHbSgaX0BtQuON1JlqY_CDKzlpxtObEJKJ1kna'
p403
aS'gAAAAABbztpyHenu9isgnJTe6I12TGjoO0LL8LdtD054ii1VpaxaluwnMnpm3P1ahW2GRYeoGgtk48JIdjM8cUJRPnPBIgeOI-ASQJSAkL4iS5Wt1ooc3KDS793aIv8t3nHoiY7ahU4r5SoQa8cYIx6lNesN7ZxX5ubs9MZUnWgHTYYzHDCd75o5EhmGnSYs37OlAM3LEoT3eTD78SLJ3MzjwymvBDWFIIGvZI78mAvI71Puo0v7XhqMmtxgJ9ZG1qd_T1dZZ13k'
p404
aS'gAAAAABbztpyXoXLs8sW1cXhj0LVN_hKUn04q24dRBvbHrwHRFcmKSPUVEPDCKVYZPzULezBd0B9oh1LfMirvNMsuD24DgpE0YJ2qEibxcI-Ei5RTXY9GVk10Vu0NETum3hyJOqgSUnuwZf49LLZT4ijyrkDJ5UusbSGtpVEbhD_UGsT3q214PIvlM2aSPXJfWRFJy0znl9xkNz8ircTElUevh99d68NdRL1zmyrpP-jv_mz3q9zv5XaXpqkR9uzFFMMoGKd5xDc'
p405
asg41
NsbsI1
g1
(g23
g3
Ntp406
Rp407
(dp408
g27
(dp409
I0
I2
sI1
I3
ssg29
I1
sg30
(dp410
I0
S'GU_CbdkP-CYhkfCNjwCBUuqQj6ym84EXoryT5YtiXP0='
p411
sI1
S'tGTNYzUN2tGMSWiJuvsTk32mrzbYMocDsVxm01w9aMI='
p412
ssg34
g378
sg35
(lp413
S'gAAAAABbztpyKMoxV1o9NqvwZd5IRYCCtFWTKGxfG77TEF7BNtIgWqmBudo3RCUwBTTEbhcFOwKmEmiWAi47LPdHFPnwrEiD7sFtJ1UhJhb8zazNwNjCzKm3iGxlC0H9GqKJwuYg1H7AJZbskXqGkDkM3TqJ23uX5O1betjBMUyM9YejDnk7YgYTU1EMkLL5Y2XJnBSraVOX2zHZVoFXaWSrqehV7EdWSeYOHL0R_N3b3UAwikKPU8kR0hf_90kjhNAtVIhjxdYu'
p414
aS'gAAAAABbztpy1ZNY7QWBXOJizkiapq1dhGRZrZqnNyQj0ERWx30Q5ZFJjtid9XmPlLf29W0eXfqN1r-gBhcxPVJcH0jSKqJyEceKnTdrTKUt-5VyFXOSgdQoMYmPHB483A7FJqUZeEaHH6c_BXWCR8GW_p8-rY9hNYDN90AduJLYd0lpcTt7vjLNL1X5p_AkJJ31dNqCcDX04q25DL2o40N9FpP0QKjvYJI9AkoyZAA5We9IxaPvYKxQZo_sr8eif0PFwi9iHozk'
p415
aS'gAAAAABbztpy849DV1k7stOoY9_FUujNKm5yVcOgLgWQmqe34HmEwGa6PkvPMynD1dxYl2ugnumdsi75FkfTKFgpHf8pGfO9MMNMBehBy7KtulcKyvCvJQizHUWmKMzA9rwfpV1zrtJjhVm230qTgWKmhjUjqSC4Ahznx5KnMQWkR__VcAJy6b3wNr8PYmJGusoBgXdYWKj1C9NJuQo4vZ3l0uG4qU4pHdGEsPXw1wEuwIlVb1_67Fac3CYZw03OtsSErBn1bj1S'
p416
aS'gAAAAABbztpy3M8oX8bIo2rLAXXIMV-6ZjVnlzFMzQO3XgaJveafehxEya-HEn12yEuIJj77Yt3MRHfSQVY8-QdJbYUSQM1Yy3d4adpKrjwaV9AscBzlXaf_fpgq1swlOyHEsJqUqCgSI3gBnGYgQg8_F_TWSqhCH4hkighQxgu59PgK7l7hziB_cgR9bNLRZZADko7ApEwUhYgVzGWq-4w2eLn6GHW6che-spItlC-m0RwTSv6DW4ZQ2E8AW_OJBrWtJyKpzTgQ'
p417
asg41
NsbsI2
g1
(g23
g3
Ntp418
Rp419
(dp420
g27
(dp421
I0
I0
sI1
I3
ssg29
I2
sg30
(dp422
I0
S'c8IJTXPIiHqTGZEG6g3B_cpzqmEwCYfomjlWWW_pgno='
p423
sI1
S'7PhGuHNlBslWvt-W6jiy7TnMVcosPxaLnNwVcJ53NVM='
p424
ssg34
g378
sg35
(lp425
S'gAAAAABbztpy_3ki-Va8QWtksC5utN-88oVpCOOFR_Is1SlOlKnX5jr9mb3vRoOnKieYT1GAn2jN3sJiUo4oG0da9fwEbz3SM-PM8UH8ZJnZlFNNMwxt3tV0ytZgwbL2f-a0ten4W4hesuwa1AAXlCSiMfODFD4mH0YeF8Pi-E4GltN7li6cl-0FSjESp78abB93B7lPyhKEoGcQOerE389EwakhxoOEOXueYLdcLCd6TumrFiC3qtSPVbOoxpnIcVT8_DEiTxi5'
p426
aS'gAAAAABbztpyrN7vSPWAjNIdrIqergXLIxGuvR6urrHwwKNdapmhSqzNNTo_p0vnVec_kJZyz6dkiVjnc3hlP393OoPCvxCCtoCcIhp5BjrcOtlmsX_nr5YBzhun8Pi8nkoTHvS75nJEfWMVepqKehlQgd0II-efFyPkg8gsTM1bNtZB5EBuL-Mb09doAakDZiouj7Q1HqpCYsmky6hMsTEe0yyMynG6H1hh4LAlcKOzmUMuwABcuXBiZdMuTlkW6G3-1q2Ik3zW'
p427
aS'gAAAAABbztpylbOuIvgmaeY8sYKdGApEfv4oaW9CBTYNdZMxmlpAZ5Pz2SXFS-oo3Ya0NYI3cy0HWxvWr3K1GRWkWeztC_7Xqb_d4bWxapWJJQqGr8DiU-wN17rdgA-fTywF9bvvM-osHYsTIXBMEHqwuYSSdNie13BZsx1NwxiWMA9ixJDt7KhTfIIO4v0uOEZO8DxqGUSA7wKFdted9uVy92ISWnPFWtOI93alTQF72lGIj77VUHrWtXfN6Spl2j370IJFMB22'
p428
aS'gAAAAABbztpy_hSbw3PoYltU8F51FOrZYjfVCpefj0JIQDhCCGICKinYU50JZSqaFFC9z0k4ghU10O3iQhzoVgdu6QDax4KQ-KNCWoxISxfYlN23wm49UrT_zCmwfGDSfn_P5f-SXOfqLCAhBb047HrNBPbR9AJyEXAfhB8obPIE76t-bshpsbj8WcyreXULnUo1qOdnKEHVmOTmeV51PC3b7QG2pkwHYfcTUv32WLiruqgQ6apZqSzeaiOJa6QZ4v6ocv4harOB'
p429
asg41
NsbsI3
g1
(g66
g3
Ntp430
Rp431
(dp432
g27
(dp433
I0
I0
sI1
I1
ssg29
I3
sg30
(dp434
I0
S'YnoDrz9Qp5ryu6CF0iqEuk0vhTFqnMRdl7q13WBp6eI='
p435
sI1
S'aL5dWt6UNLTxWA7SMy3QVIVC1NNeOYz3MdPjqElYq5Q='
p436
ssg34
g378
sg35
(lp437
S'gAAAAABbztpyca6l_aUgN4w-lFkJ3o3sug8HID1wP2Tm0lwYuU9XWKp-wzNyyIixmFbzjNNUMWDCqI4HAVmLbzaKV9pV2CL0epb4Y-tiR5maa1QiMV-p_6oJzP825Ebrx1oulxkpSXs66boK8hMyWdRA1JD1yCuaB1hfYKCvfJoysPjMsaIulMZzkOXus8PkgzWs-zoahz1W3KMIrDc37ktu0kpODt36ZI7P7yFbAtWE3h6Qfpi14FyzsGdzspXu6WaS84n2vXA9'
p438
aS'gAAAAABbztpyF8BO6D1p2AclfbdS8_CzvzVTF-ouOjNFepZCTD3LoB74fKb5kxXKsgvM0dKfgqYg7T54hXF-tFzMq55aquj657dKG29ebHU85KyWRMQyuWTwR1QjbtZbvrFFGOAhnw7xgQBLUGPxzHPHeIlsoEg5QCjXinOXSJiEP4s3tczSyDjhEft1kbc69R15Yq6c86IODVC8wy_J4S5t2BidB-0yyydzljVjbuQ3o3cpdcnOmWlA-41vAO_8wU1Ob8ScGKut'
p439
aS'gAAAAABbztpy4bD3s-Y562p9Codya8N8SLVf0quNGCeB_vOSb3t7hvO6FflRYiom8AF3Kf3GxK9RYQgZNjqOqtESFCJ34H_DgPPjDl52_BPjAlAN37arF2q4q2a0GYVIxQBFPSWM_mKbzIP4uw6lvxeKL4krOIZ9wutiSiqgHP2yoEP7aBB4e5N63AFf5qPiSU78kYJ9d6wSB8QNhaEG0eiErL7Y2W67jj6j-gXK892d-cvlHnWlXPxgx5NuJ7zn7HQ0mgwwALWa'
p440
aS'gAAAAABbztpyBwuLsZah9kHg0bV0V4hvzbg1VIaa2ruOFOFUqac2lDBQRkQQ9Fm23C16mLFyQwXXpAHSTZ50pJu7_I5GcOFiUiUpw5ooDA-xQPwOBzRONmS-HgI4aRKTssHLMPoRIBGMd0mMVKNwXEdyJimptBwZjxHQGqO7xU_C_sPNdQv92aMFcp87XRAgA8iQluaDC_4Afesron3fXLVExbLHf0qhloYh7BIiPHHaAttLhFkmDgm9e5wBy0zo4ZyQuKT1oOZc'
p441
asg41
NsbsI4
g1
(g66
g3
Ntp442
Rp443
(dp444
g27
(dp445
I0
I1
sI1
I2
ssg29
I4
sg30
(dp446
I0
S'A3_Gys3kyo_P6d4RZrbvJpwgDWJzv0vHpjWHWDsEulk='
p447
sI1
S'ZNJLyKoHCcVWeiaHkE8B1QyE3g0tsD_Nv2MgX_kv-e4='
p448
ssg34
g378
sg35
(lp449
S'gAAAAABbztpyHC-VdN58PUov3UtAmpi95IsaAvTHABMjxj0BdRTuXQKtC-Ci7qOpwo-46GEu_Mj4kaCvMPm-YeyXlPyzRpc6QDOOqd9AJm_KC2sc2ybkzc3U2T2yGEBk0O5KliG5XfDJVT_VDMy3Y-K1Q0R8TjKofFQ9M0SRX36giNXb-c9m5sGrmx1xNZIq6k4Yxdb_2lHKuLfo4HVOeBLAR8CLVkUwHK2ZY9Zz1AewhcBH1j3JeK8MxTdiFu2Rzk8G15_ikusT'
p450
aS'gAAAAABbztpy0Ulrhipbc7qQQQlT897mWmkOHLdz5yPsa8lGYDlDJj4WW0ppOci5Xr1u55a7cLOCoSFuv3JW7cvykr16PZDHTi_cphC7zgr56v-UPqf2LUrvR9ztBeQ9Lwcv8Bposbag734jja4R6ddS408SrWTatzj-nRZdy1qcF43pLGrXpbNYN1BYid9l-mVCef267bzmhgqeRuSZmxqM_E3VCNVQu0A9kNjSdK7bdaFiPScrYfNaBjcSe6rDKuXkHnIbfRN4'
p451
aS'gAAAAABbztpyfVONoYCTCBePCZtb-J6ffvVV3tJwc7XISCISX65uyu25S3F6A4ikI6I7LNWusRDTkTjAesY2MPq59ptmQmEPj748can8FT74VzZ_x6JcyXMewhqTkkIvinuum41n3896C_ig83qcenLHTHp5xUOWnrccFXfSVd240B-9BESz-uA9AytQBA2Yy9Cah82yqeE9QslNuPfbNViKNbgpwpor3dCxiyn2YZbj12l9ksbdMb8WKYcyZOQsxsluYV_DPjdY'
p452
aS'gAAAAABbztpykiXWCvQWm94b2NRojnfKduRQQk6iG8ja2v7G75EStOOwz0pE38JmDdXvht4Oe3BnmlztC1U3LrAoJIgxEw_BNSYQkk0M6STgpkvtIZCSY04OdJ3iFcgRshXAMGgWdGRed-5bO1Co5E_6F-6oWCUaAdXF-ttR7MFZr24XB6jL5NEpvT8RbjI1h_cdnrwsItiwMNUu4QCpgXO3aPggb1Iqv0WvTTav7KzBEgaxu9Dr6lPDx6wwCN0-ZAg4YoAsjllu'
p453
asg41
NsbsI5
g1
(g91
g3
Ntp454
Rp455
(dp456
g27
(dp457
I0
I3
sI1
I4
ssg29
I5
sg30
(lp458
S'[0]'
p459
aS'[1]'
p460
asg34
g378
sg35
(lp461
S'gAAAAABbztpyFHaNdb-t9e4Kqm7tDLh6HPzgeFChu0U79kyHxhia9sGMK1tV7SFDBvSKkOCjh-KIxzcyyEg1ayhEj5CNJApty41pOAI2HPJWNEVEV5d2Z4drKM7RElg2BlDkSBcEzKinL0GyMTYHX1nEu_2HMT584mUh0NimuzdJtfvbDx31_8X9AOclRJDAtO-y6T7aOLgjTqLwZYkwy4S0aLSanrVopA=='
p462
aS'gAAAAABbztpyWOBeR5c-mVaeiZxYzBbKKHpAIH_c9NDgSiWDATddF6jJNHA7o7t5-6cLIXmNrrk5AMU5tL5loE7MvEN2YNxiOiDAsU3hOfx9Ussn3Gz5XOyCLggbErEBqrV2SpGWatPEIgBG3QkSbsXHjXPKgDRwVnln1zwUjTz4eJLVbXHrSXkbYDpddD0ON8hZzcXffxmwr_z8EvQNdKKv8Ss0Jf8Bxg=='
p463
aS'gAAAAABbztpyygid9PDqPiKX2EzRyzZWN-KCL3wQq7TFrn8bqkst1UpHSq0G7fnkwxjUxb5sTtBgViE2beSbpdwSdp6J3Nbu_vh8JhbVhkYice-_dLuyHHG6hL-veFTrTf1F7PN0oGMNgEVgl_E8J8IA8JL4-Lajtp2qfgPyj_P7zvJM6BjSNfCMc04cyvZwCaP9-CnX-8OC8l7iCE3mHgFd25UGkiXdKg=='
p464
aS'gAAAAABbztpyeP8scGzixG6d03VId-PLQd847fkReq8Kv9be8T5weO69T4opZXMy7tE-qjgC7iaIfmtWGmE3ESz_MWSbDOrwRzNVIQ9yKdCRIETeuz-i-inCnoTyM2ved3yqVgfeN648dyGDm79qtpTAr5xo4YZ6n0wxHN1C1bgq77f0YyUe1Mf-zZqBjMEEqg0g2WfbaIbMuPTQVhkDZGKmwbQ_Z4ZZQQ=='
p465
asg41
Nsbssg104
I4
sg105
(lp466
I5
asba.