(lp0
ccopy_reg
_reconstructor
p1
(cgarbler
Circuit
p2
c__builtin__
object
p3
Ntp4
Rp5
(dp6
S'poss_inputs'
p7
(lp8
(dp9
I0
S'7LLhhmE9UhYMdCgf8vPK5PUEouT3B49kk1Tw2g_Y7G0='
p10
sI1
S'YEaaDeeb-4sRLVk3jL_ezJEUa8hhmg_dldPMIEhofe0='
p11
sa(dp12
I0
S'cL9rILBA94GcGAdxjdDtzo-Iv3YMytuRcoNL-HuZ6R0='
p13
sI1
S'bu_BtB8j_q9GbF7u65JU28sWI2DwZbrRNPkHEM132M0='
p14
sa(dp15
I0
S'NnJh5jPNzEt_YJ1llq5f3qnzP38az3AE0ZCrScH_zcw='
p16
sI1
S'97jimkR7XZdjSTV61EThDljhtbZb-JqTALIimQESXE4='
p17
sa(dp18
I0
S'jUO9v2R2Kk7DmdlU4Kk7eD5rcDO7hlio6oI6bkI8Zys='
p19
sI1
S'UVD_tsdmxIhKQg8drzqD-fieD0WXtdmkf1ATWiak1Qw='
p20
sasS'gates'
p21
(dp22
I0
g1
(cgarbler
OnInputGate
p23
g3
Ntp24
Rp25
(dp26
S'inputs'
p27
(dp28
I0
I0
sI1
I1
ssS'g_id'
p29
I0
sS'outputs'
p30
(dp31
I0
S'H4xj0VrfMwG7cjNs48k1CpN-x_aqwwcjrfATxiG6mPM='
p32
sI1
S'3bKCsN22GSJalWoH9i7DXwqZgcaYHd0BmoMUPpTheyI='
p33
ssS'circuit'
p34
g5
sS'table'
p35
(lp36
S'gAAAAABbvs_qjy7QIN-FS70Yt_cWrHc1-lTngq-CMbAW6vgx8sLnI8TqGeSh1g93Afs8wBChATSUckulVfBa3znOx5Mvghl3iAxqTNyaBCokQbWbZf7HnMbWzb9YMWVw--j-GmjJeqGDnxOLiUVqU0xdX4EneoY-jGdPSfc1GOKdTVmdAnKCy8w7z6KdjMMkW4uTDyhrTSr60kwEs4RVCjqcs_2PSkBF9A2t9jqDeJ6lvgnrVJTZ0TI0372R3z3T2mHKZFZX0p0F'
p37
aS'gAAAAABbvs_qAWUM-AifbQwst1G71drIxfQDeu0kXdKhTDLaaGZMvruOTsFTniweESamVQN6eCzCHRKt_nLvOvitoQRp5QD5VkXny1pYGLeNTYg1wWBYJ7_LPjaJuwW4mCL44_9TbJkVBxOEN91BIjh4X_34QODfpmiwqG4bK7JjMIGGF1q9iJGgOZJ_K4dwZ0h-NnPBdosDqY0Rs4Jg5uOdXtzZXqGwwCBq4iin3FC6nhEBLgWAHlSTV6tkrie5lUBPde3tprsG'
p38
aS'gAAAAABbvs_qf8H0hCnGinG80sLvLiKtcgBE24JICBwYNmHtWbuEF8Bq0Yn0F-IanCkPe0kMkx35wDnSvX424dyBvhjvKZJPdssMHuI-JBwob3VpuxlPkT_jLjrf_TvdDr7h2sntfDrRnMp08CATnfWb_diFeOGOzW5QJfOeE4ZONDMqwVDmyaSLn0TeVZoG-JaQeeXzb2JPzU3EV7eBgFX_VwRmsthFd03sghljptERm1CFcDvVyc_0CthS_1GQDSvIjkKecT9O'
p39
aS'gAAAAABbvs_qwk8o4Jthmf43eDyTYDNQgTQ1CR3G4tcwWLmjjzE7th77KAdbsQJu_PCCIKvylSzu-cn48ZuNbFW5bB7Skf4LHnvWQZ6BcjcrlLFvwYlwTHBWY4951iaqKZBZ3kUgz83zHiFBnhAtYEUveB7Dap0apiqEZ0wXE1nRddrWKseVlS795zpUcPijLquftybdPx1RALnCuhpQpjIC6qPIL6De2w3t_vOXMQFr-Cjcc6gn0L3AwwWpn3D6qXqS2YoK0Pmk'
p40
asS'output'
p41
NsbsI1
g1
(g23
g3
Ntp42
Rp43
(dp44
g27
(dp45
I0
I2
sI1
I3
ssg29
I1
sg30
(dp46
I0
S'O5OVXSGPYiFrsvoCBzEdnHOHSZow7rgPLTFNSEXJxPU='
p47
sI1
S'siZj6eYyUirwYwlQ7IZvGuD1BzHGtH4WHQhZxHBaP4U='
p48
ssg34
g5
sg35
(lp49
S'gAAAAABbvs_qBt8kb_f3IY9qQTXa_eoKn_fY0GPNXJdMgBCwlWbhmW09MxgEsJXej__4a39oDiFsQESnSKoxolRWO9mAJIe62JBKDflB95yMN852WOr0atjTFkMVna1ZXiOFJzv536DQhxmmojnU7gshtKIycHn_XIsEwUKxH_z8hpINxuvKzqvLgU6JToQTVOBsyonnkRgZWM6wC32FudHhg9QP90jEKvM7OcKWDCCYxEPC_lZaX0bCZDiH1wNwQrze7fO6YWDb'
p50
aS'gAAAAABbvs_q2YbmyaDyHcwcpTz4a62SME9S2xGm5mnpn__PoSB83wZZPJMYI4YGPwKPIithXSPlOTbZrhawHzqhgHyLAZ_ZTD7572O7TXsFjeAE3owJQEpa8Dp1SHbXQjlYMB-RE8UOPYE2RFjQs0BGhHKisJuxXQYFKJbGPcIYd7j7y2Spd0WA49q_3584RFJIw3hBfDv0VzQD22b2LrKb1z2A8tKpoSNEWFwX_2D1kt3C-E7oJCit7Hf58sjFMrSShN54Pdlv'
p51
aS'gAAAAABbvs_qFypCEVdnhDSQZ6V2zxe_MNUGwIK2el9GmfdlvqHaj31Q_WPJ__FiadZcXHy9QODL6y4q71o5_khirvGORtdUd_5r8f886VzeoXyglqT0WkulGD0GxI4niFbxIJwJz1Id54AxCuA9BlqqRXoGlX_UdsGM4ubtofdNN_l72q3-aWIvuSDsB6sWTCDLkfSLcvwLYra0sTTx9zAQzzFeAUuQhNH56LOen4e_pyHNyekLu89uolyDidqq8SuBxiXG2Me7'
p52
aS'gAAAAABbvs_qD9DhucE9Xm6dEsAot2xmy8aRpM4OGmdLtPSC7aKfhGmWUcw3j-Q5Fu8xv051ajztbJg42qwBMqjorIFNydaA_aS6nx871wmg77C5gYOfT-_ka82CLGyRyA1untkyMMo4gR-0bmMMEqlq2wivBgH-xQn6qhPb-wBixtLcGGtkqbU9e01yJrhocPVnppyhO4fQNm6UOjE9Y1w9JQsz_G3-k1xAVuDB0_iMQ3E7dEuh27H6llm5TJWPWhHsMLaEHmZb'
p53
asg41
NsbsI2
g1
(g23
g3
Ntp54
Rp55
(dp56
g27
(dp57
I0
I0
sI1
I3
ssg29
I2
sg30
(dp58
I0
S'U-ikXrXO0xBWeSSUmtBnggeUjf0O99ub74BVsaLZsa0='
p59
sI1
S'7BENtV3fItaqSFY4_0VeNIiD3fbdneAv3Ml94gXSo8k='
p60
ssg34
g5
sg35
(lp61
S'gAAAAABbvs_qwnU5WrmaPUy1eSFHMY8ujOmlZYLTitblezuyj7PJCbHmdSRu1OdCbzC_T6zCncBUEqbwIo-6hfSYhIJk-i-ZvApeJFnFIsESXnvZgQqrWIWoV230PL-3bLyfEATjHhLTEr6-K5O80uZO4b1fKxEZKmbS4x2ZY7ZlWF_pKWv4qOYl19Qdy2cIdGDb0cZyaifqZQv_s02dYfu2p4yjsQdfUo8uAM5qsLKbIKXt-puBqhkwx-MIkoUPgTlhHoxEkLyY'
p62
aS'gAAAAABbvs_q96qYS6NN8YBsKLuE7OoerTz9Kzmwljwu0UXaVEZh6z-yWdm3OaTOQI38GsyuMBtu2YdrxGEUXIuPKN0_ZklSXw5BjwaZngILtegcK2WTgTdvg_XHPBK8Ouaq6rzzGesJydOeAy5bv9Nugbmxd17GjBZTczGIY83jEmV2ta8XZckSoa-aJfBBOGVxUzvsbo8zXkj3CD_XfFTkTRMJsYqq7Bz7jyPQodulnZ6tWbefG_nUQUCvSMMs3tGaC-VNbwNP'
p63
aS'gAAAAABbvs_ql8vryKIvHrqaHyZEnRjDPdLt5ZpdSyxF5tl4T7xBQ6UwH4jUB75RBSobGsl7OpDVzJqOWhUSeUtC1PFXr9u0q0PT_kglW1XIN913Lx5rLV7KwlocLGccZrJIuapmhSxPq4ucS5GTnZ-iwKKEh-6pvjmirmxODVy_bx_Ftmc5YATxaq_zbUCEJ8C7z7tCzkTevutU-LmjvhvLFwkZkjc6MIx6EWGh-XKzCtUPDYumuYuR9BFAfF4ts1SkeJ4tHPf1'
p64
aS'gAAAAABbvs_qi948OLHhQUfu-EL0KxzfaxKAPZnLubGI6T8doh-hmNCRzpUmHHlWB8mwLmpa4Gu8KpbiSI3Zhw1v7cp1so3QHtc7DXl4Z6lKfhfQWWlQkcCn1EJ37kj34OzjVzQdoK5zg80qyxN5SKdbj5QFvekQfGp-5BTd1CMcWKWVD5cby5ziHpUJcYtFDTsmaPSYv9H1k3kVwqq8q3stn9prQ5tJ-ZEyuMpWR6_m3CKgdzspVnNgcZlFWgt89YYdxRAJ65UL'
p65
asg41
NsbsI3
g1
(cgarbler
Gate
p66
g3
Ntp67
Rp68
(dp69
g27
(dp70
I0
I0
sI1
I1
ssg29
I3
sg30
(dp71
I0
S'ISiQgtIE3BR7j2YHhs4OT2f-bHnvGX8CTOgDZhwUSSo='
p72
sI1
S'wvQrc97T1bPifc6VfiboCoNCju9crvGxJ8aJ06W4j4o='
p73
ssg34
g5
sg35
(lp74
S'gAAAAABbvs_qvyxoJjSBWhyFUfzHVScb4wv1pNyxETt1nNH5TkyH61L-U6CB9v9SQcydtxUgH6VHm9T9P_QYOfM--GPdRx6uzqTTdRp9JXgz4gv5j3MI1YcL6Fn7YhA5Nk-5pPuSMYe71iV5wq5UNQgxSsPQv9Uru03bhsXVCeaw9jkAcgWxEkDhM_gtqHyzRSb17W4xcH96dX3ONekF3PkD0np0gmYwcWjhM-bCg210LE0v49lTYAg7Lt-3i5Ozrp0hWAJAj1XI'
p75
aS'gAAAAABbvs_qaD-lA8rAlEQ039nUfR6XMEFWi8VTtKMMhcldfvOU-UXEaIiUDeB6bq6_vM_lulg6xxouk5v_hnYBiTuPlJRoAawJeT9as8TK0iEO0tac3_G1DFcbI3ENI3w9TZcZhU2mKJS6CSXvJNA9_25cGqQt9jivPybfFQ_J8_IjM3YVYIFWUkBcvaYP5LhUabeKojge0YYEvARe9F5jPu2QtBZwzZFNZ50ojhhIPyDH61SAPoJ6sR-9_y-Cp5PUMEDRE4mU'
p76
aS'gAAAAABbvs_qBUjUB363LXtdYnYEsFyuh0QPPbl5OS8AOchoGsj-fUxfgRPIxXPqLDfGEIcnfbwYl7QOqqpY1mQfjHQaMDXMr_ZPDtsxPTTkPuye09xuvdAUezNed5S3PhrWHlefKphA0l8Qixk5246XIiAj50-7m_pC4qviEyVDGqL_QbGhYYNDnbKfvAuKH4uVOop3sboXma5ghfN3qcBnQQs0pTmWtrEajYeuKCOvUMir89sZa8Y9w3xJ1isforXhOdwog983'
p77
aS'gAAAAABbvs_q7DsZZWtixZiVoHNhK7d9a73Z0DmDTWGQms4x_p7LCZnhaTOmrNCz8Us37YAkTfRKdCKQL86fJJeHes6QAdB51fkdRXek7v3n64Ca_BGyqpcJ7kmlDBaZfkR5s4yuVQd4HbV2zsTiamwQW8jfw1lRnH393ggk1kAhLX3e3cWtSWJ5jd8CzOrlLuHD0iy80Fbs7FQA242qN8XgS-DhMyKUdm5rEHqdRs5LP0d2OOkmddkITk24gYwFPYNzy9eemO1Z'
p78
asg41
NsbsI4
g1
(g66
g3
Ntp79
Rp80
(dp81
g27
(dp82
I0
I1
sI1
I2
ssg29
I4
sg30
(dp83
I0
S'WFpEKsxD8ccrlNleky-5jOmFDxgRAlFy3ONggb2sFd4='
p84
sI1
S'jY6Cv119gJMOxxMuWvZFgfcrU5YZzuiyUpjDPK2BdVk='
p85
ssg34
g5
sg35
(lp86
S'gAAAAABbvs_qtWrzJxxVtFiZbYwJDzAUrXwQhMAWvkFBPOv_VVvXKiFnqb0KGTAhl4g6RKdO1DIzMXkZelTJxCHk6T_sPqtm5wf3eBLp3mcZFbo9Ja4yGNoiWMGV8o_tqYlE0-B_K0Q0X7GVqFIhaScbCo6m-1Pbe1YZe49ONec9ZQhyBODIjwGRlgtaXeDtoPvsRorikYCldkHJY3sewmhyUayKiFeEi4jkBY7bGfd3DfDlgSJ3ksSXGdtQR2DPQrI0WbV1k6eE'
p87
aS'gAAAAABbvs_qfeui0cyFdpK5RMbLiAqH_uFTGc72Hm4JMJhkMQa9bhdzV69PSCckSVxSa3L_224iualOCaph6GVZb8o0HJVYwxz69pyZqxvn5KWCj0NREcJTJNgrnmB5BTGs8Eg2VkpCLIs2R8H9S8ARdAz6QFEconT3gHqUgML_AEVBtHv0o2Uc_zlFeGaJG6slhByvDMEGOv-F5xa2A04EhCEijZQTNDz6p_WyprcdktZif9fku0ysQb8WNB4ABi0U03hSQo32'
p88
aS'gAAAAABbvs_q50qF6tSd0plrQSBSDk1oWkTYygiIX-BJjuViOCLFJGpLOVOhjmwoa-nPuz6kV5MtH1QI6ISULHdcFOb_Xn94dy9Frym_x9usmzTCzGcyQ80J_SFAIY2paBDO9an-o9eNZvfIQsS8s4L1fRiq-V9K5idMD8p1Q6_jgd20HvMHPAHRQdW8YhO-GYhet0r7JkSjY7Z_73dFWL4jjpPmutCQylFDaxd0dLKIov8ZOCMhB4TLa__NfDRHwmrPTtQ1Rd1q'
p89
aS'gAAAAABbvs_qiNn_45YzLcCdhLdNCjzvK9LLTaJiHt39p0dJLW9aOTRRl6QKvMy8roV2xd_AOy-L9f3bj4GKM5Anr6_zI7NBRyJZJRQ0OpzyCqVWqAAJB-F28woUoO6uOHfVcEKBmHLLIhBYvfYS4qMyOsNndm2sjDnvxKOhe9Y1QCEggELglhVnKPiYOmqJ3WmwynsyJn_BEbJEh_5CzHz6DcwMPocJGd5i1FE1-reH9V0z-N-pdcq8qQlk5i635RaFwnHEK7y8'
p90
asg41
NsbsI5
g1
(cgarbler
OutputGate
p91
g3
Ntp92
Rp93
(dp94
g27
(dp95
I0
I3
sI1
I4
ssg29
I5
sg30
(lp96
S'[0]'
p97
aS'[1]'
p98
asg34
g5
sg35
(lp99
S'gAAAAABbvs_qqUz3XCQ-JhzVvsrJHxj-R-2YOBs0jP97qSgg8JeVmiefqUouIJQz4pnc4k5DwQbaISgVPCvSJ_l-Qyd_nDWAnwtkgIz5ieJ6YnkRRoXTYvlzmCAaMvkb-vRsRB99xH29gUKZTpzvDFwENwwzu-AM2w9WRRgzD5M8jxZKVKaC-Iy5hsREJiQ8C6z2Ej0MZqB2G-c-QQi8Zpw-dtLQoVULYA=='
p100
aS'gAAAAABbvs_qvxFhVGWk47_PD2eAx5v6osXQZinIDzV5gB4KSDJCOqt7Ihs1lle9b9qeG-o15WCarQBmUOYHKTnCmMHAzGTgk8d-0aNZlkBoyNN9eSVdQDVqn8Vzk4XqOHpqzO1hrBDzh1o3JYhd3gqm1BUimiFTB6KvVPp5X4bvfrFPDSphwncMkwGcDMyB1gkczj2aQlWBBnjl3qT7nJY2DX3EWJGjbQ=='
p101
aS'gAAAAABbvs_qxvacLWqWhJKfYzBURVjsvmDVLKNguO0xioQlndSWeR26upP55bB82CYYNbNoMrybgpq7cNpKgjVQkuP94-mmrBwRj4BBWvGCGx-wm7htBE_b7Ytr9VBGwp-tXQtu2QnWnU6NuKthsYnOll7ODLv5jL2xh09S-UBSsIOdPzyDMueeNiR189ewkDoo4AFW6U2OwazCFkIzjMHzikxkCb8HOQ=='
p102
aS'gAAAAABbvs_qApvNqvAJGLL9358WUNz-Wz3inMuzt7ToMhJvOMYgu3XfW_8VTD-qC_5uxFRTMHUX0JP7MFV5AEwdN80LUzVpXZLR9PhoMoJs0-xrkF_2MUW4jslc7XOiDTAiTjJc8VlkzlwsaLGjaLQw384F8z1Dl7dX5Ll95UuNOneNkqeZIjatxsV2ujb0KJdIxPmq7oafBR0tHA_Rweu-XFyhb4itEg=='
p103
asg41
NsbssS'num_inputs'
p104
I4
sS'output_gate_ids'
p105
(lp106
I5
asbag1
(g2
g3
Ntp107
Rp108
(dp109
g7
(lp110
(dp111
I0
S'5MH_vl0AhD9PkEt-33ypjRF5kFXylR6hzITzDlpWYgk='
p112
sI1
S'A5D6PFK-F1h7rQZZKIALGHtTJnRGGKvYtu6fH_l237A='
p113
sa(dp114
I0
S'2AUPHYN3wOug3NcbXVxqHW_PGcC8S590yetD4HKnxtQ='
p115
sI1
S'j303i8hMbJdFeN7GzeOlHcGTORtIZhwvukmcB-wEIRs='
p116
sa(dp117
I0
S'gJHdHDrlkaEytdNIbcmTIq5VYeUCmnEavz45gXaIXBI='
p118
sI1
S'7JwMj1FpL2n0VsN9GjT8uZUxCjzHmDpnSdfajtIBMnU='
p119
sa(dp120
I0
S'RSjK1XDhsaU9F8HF-NR8YCd9_PVVw0P8NMPq-wd96yg='
p121
sI1
S'_xEEGSwBak00jaTQNTTnMzqq3vqqpuXzEmK4XKQgePs='
p122
sasg21
(dp123
I0
g1
(g23
g3
Ntp124
Rp125
(dp126
g27
(dp127
I0
I0
sI1
I1
ssg29
I0
sg30
(dp128
I0
S'EiHSePv4YjGEy0KtMBP6IQRe0wA3xOdVEwN29ZD6o9c='
p129
sI1
S'GALeGZkj3aS7XDAzHLaIEKoZI77sJ4WXmRon56mFtuI='
p130
ssg34
g108
sg35
(lp131
S'gAAAAABbvs_q-dV85f5ys1QFKCVUKi1vlGtwedIunwArgV_fm-YfvnD_9D-n7piTX6vJAae4W3lnB1qndq_YmJ1Gli3gg3lgNShOFSlBc3s9aBis6bMOPK9ZVS8bD_qWU8Xp42iE7C6Oe4_6ZauUgLn7hnOAAcedp0nzQ04eyF95yJJsDshrNmKh_C2ESFLSiCOaVB9YF6iRzN51hRIVqrxYKJqqCC5gnTJVuQ8tgNApwhd3hoTYewdlNW0ZyYRKPTx7E3Kj972Z'
p132
aS'gAAAAABbvs_qSeuhknt5HxIDNEUSN-b37pboZdgbWWPeO6xC9Qkasrj5FZnCbC0Q9pS05q9xoRsXYWmdLFIEShzbYVFVzOR5znuMm5HoIHZDs1b0lBVYrigAH-A8tRSOiEvwmzBGWBElNVj1RpT2MfB32d0nRhhjObHh0gMLR4P0hEtFNEZmKv07ckKJPRr-5zNYBTIw0UdOgVd00iuLGOJZvhogMfoRSAMyxEXLqK_g8iybIhyKdVm9QWllY2z0SRjFHWq2bYCO'
p133
aS'gAAAAABbvs_qzF1_6r0_osQN57QdeNa8C01VXJ5tr1Yf2GJv1Wrg0y4A7wDWdYqjb1fV9rMOsCuliCwhAjyknZQsDG4WtBptBd15rFfVyxyZADpf5HA1fC4anrYyLnx1e5OvauwwnxZMArKkSi5BTpewm2USCw3YSg1MrMtbDqL6TwmaN8wAkd0VvzY8MKvPHf6MPXUSVZSq7tUCtAa-lBnalQqLmXoGUK4G9WjP2b9jg6YDEWGxqkobfdxp-vQ5CE8uzutUhbNj'
p134
aS'gAAAAABbvs_qehCAIgOlBGF8EGDif-e4v86xpyr9Q4_iyk2AIWwvHcNMbztJ_YyEbxvgf4Mq0b-5KTKU4Dv1wMe-xTgSdpS4AOoKVV8wX_DNWjp7WUV1IsJdkEILa1QaOXRPUTLkWvE4Aqw9h0AxnxqITgKXXRiFFmgnkFyVfjLk8q7u9Z99CTFSXylwq36jw8VnXaO-yzQMLTVFtMGnazt_pMhMMSh2EhQE26SzGvDwzwaB1M_uZ7MMOymIS_-Ry6dFwZqHx_86'
p135
asg41
NsbsI1
g1
(g23
g3
Ntp136
Rp137
(dp138
g27
(dp139
I0
I2
sI1
I3
ssg29
I1
sg30
(dp140
I0
S'vgFm_Ckkztk_PmGotxITX4PIHtsba-J2eqpH2x6pL1o='
p141
sI1
S'll8Iuwwfa4-X8_GPENwwGL_hyQPXADSYHEISqTOi2y0='
p142
ssg34
g108
sg35
(lp143
S'gAAAAABbvs_qbPQ7-RG7dqrHHpINz_J34mWFl5bb1AkgFJQGZCatDKI4uAI4h8wbmqcavdYZIl1bQ-yCrtmE_qGaJvJn75RajbIp2Mw7qtJuWZ9SXUDI7bsddrWCJaKwVPzRpsIi-W4sgPbA8dyb6JbpTnflCFg-wssLO1tyvZIpqd70T0AUAQeU0_HLQJLLb2EAF2Vj4pwyVshU2BSNQDZiYU3lreE3YcXFa91qP6yJFYpHCnfxLo9E99Q3Y3j_yEygmP8adEqD'
p144
aS'gAAAAABbvs_qy8RQxyl3K5Q3ddAyCCGr9zy5c0zB6fSeJQ36FHUf0pRdjxiqhsMkBlFtW50y6DBeIbks1IFF8qJ5-1s3uBttp_FzT2YGaA35iU5BHWB1DSZLxVvDvrqI97tzpMfBDaRsRY2ohd_u9KPLv9zPXbnQcLaoUsc-51PhpH9MyYUlW1Q4nNl3vgAm62FuEptEqaJ67QrdxYD64A4xzWQWMbaALtCKcgToCKwF31pZNd53TftMhQVZ2Wg-ZEBH3H2dvgEB'
p145
aS'gAAAAABbvs_qvv-O5CWyr6hyuB5J6ryboJPwIhhr2o5g9dK1cNU_0dWTYLV4BIqgdErSAudayHUUvSKNvFxM8xpOiOPMe-W_mrng3Kn84A_RjCxrGtcQKTbHBdsBUahm05k_zm039uq3cc_ndX9jkG1D8m4SDaJeuGguA4gbcB23zIGwnwVpEvAbJBge32ILXTpMvNoCM__cPcHsRDBUjin2v11lIaiPl9Ut1TzQp9QPHYdihE8btGSGEI7lG83tdgpe_I-uv0hg'
p146
aS'gAAAAABbvs_q8rM1XIA_7zEqfO6bTt2njffcxbiALqCou4FAdVkliEn5NdEoOqConc3ntCItTg2QISRlrVwxq9Qh7fPofBK3th0EZuDOcJUAH4f0a6N5j-WUZjxqjriRg9mAFzbOeLftvdMsIQ1JH7_hUn_Q580VRgPn_buoTAfkcvw4kOIQKthiYC2iVVu89P6_TBJzWHuRionfMwLCtY4J84wZsusz6ci_U5hD7n3VXsNPqhqi0dCTy1UDsc_COEgth83kNunu'
p147
asg41
NsbsI2
g1
(g23
g3
Ntp148
Rp149
(dp150
g27
(dp151
I0
I0
sI1
I3
ssg29
I2
sg30
(dp152
I0
S'Oyq89MlmGEuy92eSP59qGA2DFqPKBQcrm3DZ4I3AErs='
p153
sI1
S'15V-M250Ze7S6D1ZCD9aagbWzAp0eVIaiB_XWkG3I38='
p154
ssg34
g108
sg35
(lp155
S'gAAAAABbvs_qF045hxmCWyWa2J9HF2XA67TPv7T8zwcMBGtekKO1U3a8pE8MknYc9iSacIEv0cJS6f0qHrY6EVgJXbNNIeWNSZPCulNmrNRlkU-AJXto1WqDabUaSDTEvmegZKLCgGnEVTLUdPEADWyn82JDV8LbFBoI-e2CwLu4D4DWICTn8oIEiRkYOxXyhKdzqqpdfwuCpkNPNqVEZqehfrUe8vjTz-1QNtQatFE0ebSU7_IMNM-JQBZMUyB7Zy9pWH7nxR8L'
p156
aS'gAAAAABbvs_qKK2MSswP9EgBTWWMLh2D4j9MKvU3-RlZ5_vaL2RIa-Wwuo4M3EY31yMe-5MMZr3j77ocYy2R65gzmhxp3QD9L5DRqbS62I_W4r4mzAlMzKs2kK9OqmZreuMFRxFt19LezTY6e3L9NHr83sWEWq3xjGzJx5fyfnBPMbVjSOSdlPgULVY6q4kh7Au527qsd9BgsuTUPly44-5Q8gCXKJ9gwhUhKKRhsT0_kzdVmAHH6D_9n8ktgOGCjWSJ4iGXQbes'
p157
aS'gAAAAABbvs_qyw7RrA3AHLQCAZ4Bi82s4tR_sSJXxLr3Fa-8WSNCgZcqhIgk5JwOdfdwYDM_n6o4RvDo9AR3P0Jw28QcDyRZd_9eUi90smhq9MA1iIPptPBIBRb5XYv3Heej5ZvNZKtKo56v43tZScbHNJByoxNP7CWb44mjJ5ybqbIBzIUZPV8txEkTzwVKq5Z_TedCxAo4aEcE0-PJdwt04kzmwCEekNuR2_d-IyoLNkNZFfcN9pYGLLmYV2WLdZdYBwedgYS2'
p158
aS'gAAAAABbvs_qncNm7zJauJW5aAcUB1GNTnNqpbzZyJFvdA2KApD9mXINKMdofKDmUpdOnLXhH_KP0Ahi8jirmtdD_jfQExe7I1GtKx7L498haKh9t_4Sc36AtNwf2SC2y2jOdaoGg_dU9bibK9AH0UPnTyLeiDWTN2e-WERXU5Tzdo73v8-Q6w5cPU1pgjqHzOw-svcQl8YhiePpuYEL3plFqZrRR1mvkc3w_Eo9ZZUmkryXwKXGqgM8-sngeEYR59ssTzNyr1DI'
p159
asg41
NsbsI3
g1
(g66
g3
Ntp160
Rp161
(dp162
g27
(dp163
I0
I0
sI1
I1
ssg29
I3
sg30
(dp164
I0
S'3W0CaVztHvzAAIZMpJAB7hspj5e-n8lO7Yc3BH3NAEQ='
p165
sI1
S'oS8HD78_dyLS3hnkXBLU_mTC-OHwukc-jiI3PEpPAfQ='
p166
ssg34
g108
sg35
(lp167
S'gAAAAABbvs_q3-w8rL8gaAv-NSNPRKBW_L7982PGcbXJBRbtA32THTaOByUGx2y826QqQtCaYoZ77ZhaqBGNd3CeJ1ZAnp9ftyReFsjeOl9bpLJDV2kbQJG-pZK2Js7mHo3P_HTJjrHnu6mND1cRQ6Yapk1Z7CI4IwI0IIenFOEoXPHb1zUmF9JXEojOyXQfSJBZ2p6opR_inEeq5-fZRX-t7QM_nYhh2pysKQH3BwFJQlGIyR-kSuCrCOFUhHNgDECtQyisA3by'
p168
aS'gAAAAABbvs_quNR7YcTGLyP3KjblpFkEyvS9DcrUWTkd09DVWjr2IU4MjkQ4lzpbkYb3JNEhm4TTqmpyDKOFCwdKsn5IHfYKPr6vagNjhu2pAXMgPuBg1eHB7uONYxLgOUcgCOZ3whdHLFFVIwpLzpeMeGtwldvEVN09I-vugOolH6KloopchoTsrGwE-0JswI4qLyNwqcmXwvCH13yFWg6DSyPWIlXC59K76OBZkCdZHcf7IBRLwbD6j0z8nQLiaDaM5whgLxiA'
p169
aS'gAAAAABbvs_q3hZ1R7rM137w1BfMmUBiglkpKYkbPiNZGDdExIi2hmvTGqaMNWifXSsKWUuGciipvoG_wPwVPt9d88KPf-uaQq4X1tlmRpoLWpb7WMwI3C07BusHxLOJLCsrJfBfiEEf-45e1k1yIpTjYwK6kJuU6yZzL0P4nOhJAopddTozLxbZ-56_q9xTkgEuOaOjBBb8moJELV7uw2uW2o5rZp8vg4YQPOeGScEYmZtd2I7p20KqLihZnWBh3Z0InQEk970k'
p170
aS'gAAAAABbvs_qeJgnWNBNXnyCqpqLOFAglMK4JBBJM8hKALQ4m4mJRGIb6m5dUO8GC_j80pjv1T6MCWPCfaE6hPIO5LXmERQQU8mZDHlH-oJ_fqUXOpKSWQKBnRLVbmWaVhyp4X0z0CYCBKCin9jlmAQD4p52l8HRstcMMCWc7frRQJ315SIvMlTJUtmBrIbhmQtvgA5QcoL_RYqeynskT9uy1Bt4Nh1Xjks3NoMugnVi-qHQoAxzB5TMWvUbwMeJAzYW5W2r2kA0'
p171
asg41
NsbsI4
g1
(g66
g3
Ntp172
Rp173
(dp174
g27
(dp175
I0
I1
sI1
I2
ssg29
I4
sg30
(dp176
I0
S'gXHA6cCq6FcbSsxupdhrBZ3z8ihZ2uZCScHFR--0jYU='
p177
sI1
S'Odr4gw-b9YrGikeHccVfO5MmJ7ynQLB_eY1eVd4E8oE='
p178
ssg34
g108
sg35
(lp179
S'gAAAAABbvs_qOoh6OvaE79MkYh20d8y5KenIlbJZiets-nAe1ZBUBlHCR2NbWLk5nal_vgLV3wGNeOZvNqyCMT369CV71cfJudP-EK6CRF_-aIoXzWqXHmD8xon3u6cA9VfkJeMhiJXoMQdDQXNFEvSSZiOJo-2X62XffF4zN8My5wupasP4idmR9nUrlqjhn-0AVTvh5M-MgBTPQEwhjX096CngUPLj03RMeQRtCze6E-cku30LUrm5ucNcDLuESBd7X4M2uOiY'
p180
aS'gAAAAABbvs_qp5l4iCsLJqt3qEpF_jyb7oP7miys9pUYK7EbbLwiOuw4RM2LrQG8cZIUkuvh5O_d9zhGrf4OwN80uwWBsgRhds-MDGLbQ65rMgYu4zA9MTvlPwK_a7c7_HJYrM0MQLxitXWOsPDzLnwidLA3rWns2lapYNr8F4YT20GCisxLjvZD9Nbr6C4ODZxjt1eLNx-mzUUAYkYgLBjIRQ6StWyIJ2o3p9rluzGeVtrkEm5gikDjGE5G4FIHYjLS7PMukBun'
p181
aS'gAAAAABbvs_qM4cqmlAQ_HD5oyplvcstQmu0XHlEKrU-QgSgpyoLT2mrk7vD6igfZTwY0dhlQdI9GBkDMCPKyLh6n3W6dJy0Qh7oqHHQi5fewmrf7F6gsvuAWko96KAujIaXEECWbPraYB7p8JaSdqHt4P26AS6fE8sK_S8ZpByYmPNulenV_9orYNc0OmIRKfwWjFkcejflImSohP8VlqRqFp677W_ffqp1VZokcawGVBjeOWYcr8H88r0jkjHcfU-reINNRV9l'
p182
aS'gAAAAABbvs_qW4-l5H8QBqPQua_Ybna70FtEWXU6v64xu28EX2SoDP8F4UecISMa_TZmmitiexN4DDpgWJAtUg40-wX2DeX-xh05Lut1JXuNsZgrSoh11nMdbdnWcSuZ-7B4D6bYitwpkUnE-fA63covGzD9aKI2mRqsU6A8lnEiq3dULqoUc55OS_2vcT049RY8eSFqNHrCZ2Pc2NTF_ozeUOml88DG5ufKK_XVyjGudb0CY8ANegMT9BHsh3KGa9hBl2ud0C9Z'
p183
asg41
NsbsI5
g1
(g91
g3
Ntp184
Rp185
(dp186
g27
(dp187
I0
I3
sI1
I4
ssg29
I5
sg30
(lp188
S'[0]'
p189
aS'[1]'
p190
asg34
g108
sg35
(lp191
S'gAAAAABbvs_quvfINhjQpeSRm6y-9lmWGrQlTK21qwlTMC_SVaE1tuIY8Uu5NbRuJt-50C84Mj8DA7hpNYGh6on3yKDQIbM76bLikXHydzgjCkmTh8Z97eL2CT1-bdQ9pHUoWoiTJmVnUppkg_TD-B4MpacIARTY8k3vBSTGZDpVhHQYtojYM04dutg3-eiCIUmiL9GhEYz94TFlbzsxQ9P0xugd82lyuA=='
p192
aS'gAAAAABbvs_qL2QSfhH-l6dtmXdmRWcP3JAlrbJbbp3I31rWklq70ByNiQKPsPSNn_NLs_90HSdwPxg-rqY6K1w8cL_p5DcHLztKbxV9ISsuurZa2tiAyE50LgjspaR9-mqbTYKk2-4uDM7GbUYNTrtAvUkxX6Qjv13HwQi0WNJWJ3hbzYvhSf5NYvq1u5L5eekoHeUhoF_QZS7tA2NXlSRD-oG64w0oDw=='
p193
aS'gAAAAABbvs_qD0ulzxiKQav4-5lDDSh6TTuCXkCO1XQuql8qZN5bGO0dlVn7MtAZt82-emI-7PQlLa5IvenbfjW9rC0_WFBcp3rN0nh64aFw85Njq20A7CSMWxnRmjFbwElaO4MXTe69R3m_702MLkRvthUlWvVYT3gLHIWZ_S1_dhvwYL31aeq1DKTkFvGn-MEFdEdbqlnLe5e-Enzv7NyfHd1hW-vOZg=='
p194
aS'gAAAAABbvs_qCgG8oiEv1Q8nlYmD8hVBL8dNK9Y83LsDCRQmflxFsImfPnj-jIuB1Iic7OsXq5F8npCci2Sy-yF8xlfzZeRcprTumMTO63jgVf3CXWiT6hk-GKUD-OyKdvvWkJLosILU2KwkcXEVvPxWKT4jBJYY0Yb5EggL1Y4SArPeMVGv7eeMufqVWpsVaxeg3PcExtGPwx9V3dNxTRTMAlhPpW9DLA=='
p195
asg41
Nsbssg104
I4
sg105
(lp196
I5
asbag1
(g2
g3
Ntp197
Rp198
(dp199
g7
(lp200
(dp201
I0
S'VQjk4cEe3uSJ-LBHO3LAvGSnMlu9qX3vEoUC37DzVfk='
p202
sI1
S'C5v9fDfRnMULBmvM2JUkO58DeTUD3H8gqY56FCl7EJs='
p203
sa(dp204
I0
S'te_7CWWRzEdj9FewkRxVpK2AL63kkd-Fmi8wNmAcd1Q='
p205
sI1
S'xPkj5ZLyDLprUnxb4F4D7f38sBhTJ-GmhZvKgGqwF98='
p206
sa(dp207
I0
S'8tKj_EJAvgSFBhKmDY-nGAVbNNs9cHpzsi9z-A4Bg40='
p208
sI1
S'PoQioksK0l2m_ONdzvappsYhkZcZEVwbM3jOjXolgcI='
p209
sa(dp210
I0
S'ovVgQpHKDSa4t9f5IQPOTraWfvWsvijUWI-iJo0wqu0='
p211
sI1
S'ynKpZFNvaD6WJ8dYt8hkkzlA7yd1h1V9MLQw0ThfH38='
p212
sasg21
(dp213
I0
g1
(g23
g3
Ntp214
Rp215
(dp216
g27
(dp217
I0
I0
sI1
I1
ssg29
I0
sg30
(dp218
I0
S'ifYB9WlEGY9f-HAmoNbt6q2z1CW6GCGggDSyZ-Hcx_o='
p219
sI1
S'YQ65_Gxgnz8sfEwbBpKFgMkRj6STD2EcBmXvYC6Yyhc='
p220
ssg34
g198
sg35
(lp221
S'gAAAAABbvs_q59j4PB1g6Pl_w0AP7wRSHer8udQVb8iAzcfKeApvFm1QSciTl8qjy2_nIB9rVT9n-ELjLrJScL98xzWL3q06dT2uYGMZElUSQRGcxHN3dhFOiLMa4NgfP-YVVIpUW2CR4mzgc4LOtgoAUvxKajKHdASxUS61wqyZxqSSz6uQGtMTnaAIcCRs33h-ffJlOKV6HJU5HsTfv6VVFNJ9CQ4t2li5VHwbZYPDdsb67D0cvHTh4q10MFFFITXC9x6XNslT'
p222
aS'gAAAAABbvs_qdaPm4mRCb_uBVq6kDB3SU8R8R9FA4Fxxg1oCWJADFJzRKNqPosxvCh7M3kecCdnO1vND7fj2YBNuGIAyY1nhQ-sRK5GGZn7A8Pj4NZ3evjncyzByxeKY1vHAumiNZYIyE2O5EleEPSgh19JHy0IY-U4qBkhWZqRFmgaDaexxGBegQdJ1hzzuoc3FVsVLMDpm-ehaGWa5swjfdibTmRasvvfPNuGTm9oaX1NSdvbzrtqqAbRqY1MM_TUq9j5WzZNj'
p223
aS'gAAAAABbvs_q1gL18dObor_Fl4c2yozBBde7ETz1hNrB7TMj42u0F1xumyiThux0SpVoDlgRSwxaEDOPRYu6Q6wBwSoWvaKIZgsiiOdW0DtZTDFMeYKKTUY1hDiRQE1pbi3G07_jjHXXiTHy6rTfwZTBQmn7e7Ft9-GZpxcZ_cnjkb5zUYbzNewtQc4LGMbhD-_VVcCJhNY6ple-A9wHD0l8LwgbbKJPt81sqDO5h2WPqihBG5EAHQupHw3MMWXtnHumBWyhbmL9'
p224
aS'gAAAAABbvs_qUY375f-XyC-q468XU6IIr7efIPJGLulpD9HVEoKu9hftlOQP6U8EoLdTuJZQMefOhR0HO1I_vNLqJgE_9Piz-daVwiSaOZVU_EkaTyF4E8aDCb4s0MfwC4N_61AO0ln_NdETDLwxsGF16S8JttiqMuJxApMoyqAFjFAT5p2cxwWDclC8-MDFgLoLlJ_tyApfF8hlrYkRRk7aAtzjpGoLvCtPS-QjL7QD5Xinv9S7ITNE3ypw1wAAVfD8HvRHSoZd'
p225
asg41
NsbsI1
g1
(g23
g3
Ntp226
Rp227
(dp228
g27
(dp229
I0
I2
sI1
I3
ssg29
I1
sg30
(dp230
I0
S'dd_EKRXB2mJGcHp0kgeXhCmUNPlKTAyNyX7BIP4p2yw='
p231
sI1
S'km_JMHjPJp0P9P_187gt_sJk7gQgWWGh5gmNvYb5xPk='
p232
ssg34
g198
sg35
(lp233
S'gAAAAABbvs_q5ct1LlRJkFZevUV10a9kVpEVQFKf-vwzTFi3aQ_3VMa93oqB0KfqWXmYuIo8aw4h-Qb6uHOTSH23VNt5Ld1DC6OjQ1HS3_2B9tLNHWxSSBgHlrtOVqkxYKjP6p0zJEz57-Ha1d8XPM2bzwIIxC4w1hi6-pDV8iV09H4O_Tfi2fFqFvbZOI4ulQNfbUCbawxbHpYHHeGDTkT2mWJ-c1G-V_hfC8N7QCm53wpNWwzEiOMmLBP0dNbfuv41BfcTX3S9'
p234
aS'gAAAAABbvs_qJz_RdynGfLjiUoc_156ITEU3qvlqughqXsq21UhZYb4vHPYrpmogUTC2G2OIFXpy8IibaD3df6vLv4fChvMrpVizJ5ewt39BvLe0pSfRfrYUfgiCJIvUbyfN4SQ2Phri8yCJHi5UFB8y1GK2yketW6sRxsP9SEqlo0V7a2q0BdazHQCGZb1Xo6Y8r924Apm5aGwciZ3X0kEn4o9FN3-ubQphESFWu1-GDT46RmtNyIgaEqfI2uYs_ZQeX7Ku-gNV'
p235
aS'gAAAAABbvs_qXzYReYkexF0izcPvrF4XV5tRA4WXHcHszid-1zB3R-esEqOQbfT-lElfgpDC0EzoiEn5Yy-UJTW5P2A6kOYRyU5coo7tSNZTDcoxNXRkYrP0T025MqrIi9bH33_JgBwkGwm07lw4RnarhXaHETwi8JtbjR4MkOt0g93txWOlLWgssm5kVg0x7b9Qn1C7vRbTtL0rxUOxDhRUt-uP_iWiG6mp0KQ8b20x63b1uPYy9el4DTfXWVNlF6hAWJzRoIRE'
p236
aS'gAAAAABbvs_qy8fWlcrbj19Q2bwnGRlQbqZO2IjMwt7LahqWG8q33wKvxDjBCjBkZ9qxV-wVC-8bVYJ6nbn_xfF4AuzFmGbY8dcdtkO54hBouEormFLghFjwZGIHs--6HsDuR_rDg3802XSOrszLRgktqQjphIdUbe8rxpw1Wn-vQGjeccc2k4N8E747VupL5gIIdSp0RADa8vsOnQRM580PBSqLhMykW0LuhaiEWj4VL5zbW3lqVELNdniTAwIr6GkHpadmln8h'
p237
asg41
NsbsI2
g1
(g23
g3
Ntp238
Rp239
(dp240
g27
(dp241
I0
I0
sI1
I3
ssg29
I2
sg30
(dp242
I0
S'L-KhVjEcSfKvWgZGevP3Q9dycBsFVHCO3OsmeKd9e1g='
p243
sI1
S'DGBjlN2Tn7rPxfaMkXVwdE8YDs-8EJGvSttR_FJaccw='
p244
ssg34
g198
sg35
(lp245
S'gAAAAABbvs_qlADeRJqQVYz9jF78zmUrG_kE1NA4Y9iSQESxiZchsyNvzqjJbPVKVoz41TInz46snGNb0OhwWONeJoYm2TPt2YzAvWiv_5E8uHIO_bjn2-i5R7zzwbI1Uca90Az5w8zs1gOBB3PrIoBxVbDHoA_rXsnLBJVocQX1ZAA17vjj4Sor6P_XkByfjIzbWFeKb7tn5fvyg00n7E4m8HOcJ5Ku87oTb6uB4xssGmMTULlkZgahss2HWBkWcA38ejL-FHky'
p246
aS'gAAAAABbvs_qf9ponTmtjR3YVzn36f2iDNNmg836ZaKYY4IvC4T7-MExt1Chyle-8ZRuaYwYURBlHLrwYkRIVDNB8pe8QEPkzfzuXi1EEQizdiBE2tJzrzDSQTJpKXECgebR5UPZRmVDh4wvcDDrao5mXdKA82BBedoiZqx85qkYI2V1lV9I5o3todPDj94btUBuYnVm_ioHQUAMOFrAomgoiCvMPIN6he6yRudg96_MUKjQNlhcHeS7YyVRSgoaAAyXHgzAA44Z'
p247
aS'gAAAAABbvs_qBDPOUGPXbfvxQRarPMZuQNTYRrNAtThTVRH9-3a0vy2ltDndo6sNHVfZ3ATmGFUwaELIeTeR2idw7naitSx9tEwOWM_icMwn7P4360ae0TFMkU15VXSFOR8bJXPsnDRoThrDlZueQuNSor-ewRp7b2HORbk1dCPdaP6k8C-_nJmmFb7j67sSj2Rjk9qxWrOn7eL3XIi6Ec_pc5jsGlv2Zyrg4rsBwCwTV92IixXxHHnAiZaCly97Sr4rx8KJqQJN'
p248
aS'gAAAAABbvs_q2m9e7ZgZYehPtmee3mmwy5WqFFdHgCDbjKcsQ_XJPUxCWeIPF5cyj9P2fy-XI-5dF4Mpwh8b6viZ4KjxZTSZpAnbQrcdbFuAqTNsX1ID9zzKT5BRz2BYIlGdg8Emb0wuigK02hA3Qk3z4r_zZxDzDxwPNaTlRO4seVpcGSkMeGkZgO1vpy0hb2CW4kduytLzNV-ftF5RgletXBvI3FGBlLp3vro_EGsqy3np0odOZtwhs7MQwJyWYx1uAq9Cv1u5'
p249
asg41
NsbsI3
g1
(g66
g3
Ntp250
Rp251
(dp252
g27
(dp253
I0
I0
sI1
I1
ssg29
I3
sg30
(dp254
I0
S'jXZeEIVWGS0M3rl-JTnF2bPcJ9lfK-JD3UE0f-nUIdg='
p255
sI1
S'rnzAPXpitUvuOYM-J6r6h2h7dJlEdwWVehXSGLQVMCM='
p256
ssg34
g198
sg35
(lp257
S'gAAAAABbvs_q2AbvhjBf8RjUcSc6Yq6cDBpfNsOZMX_iZo-ZEl2C20TIFFgxQcX_yd2Htk_K7NSdYbhk2Z2R3MRkIEIRb7zc0qhb5uoyi7XZ9yNNNXfMunxwKzseu2L9d-4e2qWNFJQHKnO7mX8L8683X7hs1pDhsmghhWgWdwACqyYAZ7fcNI-eiMBIqVVn-LAsFs7nNik5C1DHCmqqk8PyDLC2NmzZs5IptiD23KPUZ0J07AWWnRKSt2Mt_ZrkexHGem3G2-mH'
p258
aS'gAAAAABbvs_qyo5ZL2uEbOgmCDKJF5LFF8TylauOHe1j-IdzZdnCdLK2S18UUaIL_cWZUf_o5cDkLaMZ3Mj0gKAkIJjM99U_TXLSrGcUNTGNGW1dL3NcBugTldtJFVZJWYpigAZrpNNpCIzGFiAGU_C8BFOdteAQo7x97-yZcmEGBNca_Tu3BS81OuPYxQYtm6J6Ph3On9pYgeVsraRwCg13b8G7rxYzlRzDwbwbv9_yJzL3Ebgn-CjTE1TRJVchQ0A4CxJMI8qY'
p259
aS'gAAAAABbvs_qrGaNAqSpFhHcPZebdtK0DD9PnrzCC8n8EH2oLjPUDEIRM1397-G1HyOJXX7y5kgxCRNQ-ka-413hfc_fibMvRviT3GxKa1UtrC8wyk_pfKRPjQVlzLlFG81GYUqkJmIxZzKDSSdeaFcGT00SwevE4occGf0zw1AsZc4OdLOb79j9RfPiInEAnwa8ujFkTVSvY64jdzSbRiU1gR7UJXpXwndRiP60u0E-Z8b3TPzf206tDGC3fEb7OLqKYLD0lxuh'
p260
aS'gAAAAABbvs_q0nqOFdX0jqNSQpPAsUMJq3p4Rp4fTHWxWVFO9tSX3jg30Fwlq2dNYhv8H4R8jkq5aOd3oCi6Gwgso_TOCl8-u66IxE9WrlSKqi8DIFlDcKaWIa3nR_PQL0_jK08vmxnlEEEjKFcZTRIGLvawL19Ttz1aF9gl54FDPNQ0abDN8GoyQDUq6Oalizz5SIZaER73tpuD8oJ4dp_W9UMe_9ckgD-cu1hsjnKnOZ7MD8hUjoDOXGnCCJWYGjLx8mtF6ifP'
p261
asg41
NsbsI4
g1
(g66
g3
Ntp262
Rp263
(dp264
g27
(dp265
I0
I1
sI1
I2
ssg29
I4
sg30
(dp266
I0
S'Ma8l0lS_4hm0TWReH56LI2kffVhM4hdRTsENcktfrxo='
p267
sI1
S'RXC3uBItgDwusI1rwPbsBuhNETTIskx-H9eMOhrRcHU='
p268
ssg34
g198
sg35
(lp269
S'gAAAAABbvs_q0GccJfHVs5qBorr8qQwYHDDZFpDedFzTCc917QouEWz15WSzEuen0Q5pLBvjxOqlY44UV6ZMecK7yaXpdkoC_bldrj7mKq2b1ofOWjTRTiSaqLGFJARi-I4VtfW76zCbu_cSUpSVpj5bmXAZpxY4KMxZH2iBf4KbWyNbxKzHEajCKIycd9PV49p0RCnRBrGB7Xb46Kyx7FUpKA14OGP4I89s6pRA9HfmR2f_CS7WnAwytVP7LuEcE-IRASW1qRvz'
p270
aS'gAAAAABbvs_qf4DpTJMXueWGKi-5MX0hHo99af5bPWO1WZSler2gs9U6H7GO01U3FZsbvv2jX7ns6ujelish0N_Ea_Ft-_HvhmhkGbJP6571Qdi57zYhHN1ZcEvv3i-PKKBII1KJUB0IkNR_Y3OWBooxGWLeCLxvywLF-jtoIy-mSCmsd2NppRmomaOfnstBp8iXB7VH_A58quNxECowGQIgFOMFWKT0wdPdh2PV72ywVmm1Z5lCs4zCWZr0R_VHe1EmpE4o0mbM'
p271
aS'gAAAAABbvs_qBlOMEhg6J-2ES5Fy3feXGATpEADdYENybRqOeXSZMF_1Wfg5_6-J9X9xPESE5xilj12rOzBRIcYFnGe5zLpqBmKThQINulTHf19nVhMQ2XarD5EBWE3bIxLzTBqD3O1qdmeSDgxwKtVAYU8Ie8CipKhygEwdbd4eQAgHtp8yN8e37FT9TR62E30Ceq3Ij9NgMsnumQeEFKjDewXLzA1RAOg1b3gUuhBrXid8YUwH53fo0Qp3wSwWr7mVlYn7oZLd'
p272
aS'gAAAAABbvs_qPmaDkwi-kAuQTnXjFzJznhVPPBwDVIe-yvRRgIwvtxFCIpMs4bJzY-BjRFas_BTTG1XOLDq9YZWpScYoRcxZ_FEppK6MFtaHLEFghMXY78ATnRX2GHsmAzFntKTZR-AVeH1JmmKy10D7xgjhRH2sbMDO7rTC2fqwMb2eKiNTFrjK5ZEFuBVcOzjlO2hPNQA4vasBQlQhRPKoPRZXYPxcnwlZSsz5oZa1cnAOuE2RIAss_57LrpQ2hPoF_8IG3SaZ'
p273
asg41
NsbsI5
g1
(g91
g3
Ntp274
Rp275
(dp276
g27
(dp277
I0
I3
sI1
I4
ssg29
I5
sg30
(lp278
S'[0]'
p279
aS'[1]'
p280
asg34
g198
sg35
(lp281
S'gAAAAABbvs_qvgjCsBpBMEEzqapUMtS3yzMTRBsuFYQ3qQZA3ZCd1Ln3pykAMbG1SH8_3UTCXUur8XBY7uIzsQ-6vqiSImNgEgKv4zoyvtlSb4MyhO7m1K3CUTamMrsGJEpplOXurnNevwiebaPWmeqFuwFyibfAu3F-auS25NECTFdx1D2u2IKuqU46omsH8MR_Dd2LJ1BUGn7fT9GFLa_qBTjb4KuUyg=='
p282
aS'gAAAAABbvs_qKOX7yvSzkTePXaPk_MFB01JNT_5wStax0Z_stRQOrv2WjEeFGqjY1H81VBmv_1sO6JybXYSdASWv8x-Fqyag1xPzucRI70UeyJ2ZGGMoFVDTgTbeI1Eu1t0GN_xMgh9BLEayOh3USCLE2onFlO6uIOdEc6ZEDkpffC19PyqOI8IKjegeJ6j0QvR7R5z9F1g2hVneIe4zxdi6wGOYd8jP1g=='
p283
aS'gAAAAABbvs_qdxHorSIq--7EYxyOLMTTgpDf-YGpGOHTtmkNC6HaSVUp3NLK_5IoGfWMFQgioG6nXu0VaSpzG-itB3AaA96hGG3CGvc8PHfqalW1qiQyijUFsLW_c1Q4FZbBvde9cPFQH8HmcFQ5i3D3S1yt0z_tpbXQ2nkPGiUknHJST2t03mwt17r8uEzN_-sdipWGNXaQv4rZeBi106SGZRn_5HqvrQ=='
p284
aS'gAAAAABbvs_qPd1ZrmlQzQzEtaE2WbmhaF7ivIpeO9GWn5DcMV4pq44pysABSntt0g51dQAPC9u6avrF_ux9sr_V9cE4y3MSLKFwJQtb5G-oyMcXPsv_kJ2IyGt-Ri-agdQMiUD6AStNSXcEnacKvwdGskLMD3Yu8D7k9J4XF1on9YrgsZTusLUoF1RlVX_c2p2MHireUpIJR5tsn7NMMphlLT9y85DDTg=='
p285
asg41
Nsbssg104
I4
sg105
(lp286
I5
asbag1
(g2
g3
Ntp287
Rp288
(dp289
g7
(lp290
(dp291
I0
S'hS6fOyRGaROGhA8JWI4gF8N2CBATFLehZL6IykgbSBo='
p292
sI1
S'E5G74u92Af62ZXaFqG35D065tDVjLn6Nxwk2t2xw5UI='
p293
sa(dp294
I0
S'Wk-ANBTxfu6Iom-vUdVo7nnGGgq1St9V3uMP_ar3CTU='
p295
sI1
S'0tzasf1YoV6Yp1gc7rIJ1RnPKjtQQfejhPE0XwzXcpM='
p296
sa(dp297
I0
S'PKBM9WyJZ0io-IxYEfZeChr50ZsKm1RsC-t4DypTUYY='
p298
sI1
S'qpi7tK8LukgBAetBoqdo3WDpBSut6ri6Xed9wEf_Z6k='
p299
sa(dp300
I0
S'OyYyuPk-jZ8UO0hWBfzCT9MMprLhHUAGdZjotYkQaU4='
p301
sI1
S'TgcbP6S9PrH7aM8CY3PHciAq8px1-dNZ_BG3gw_OI0M='
p302
sasg21
(dp303
I0
g1
(g23
g3
Ntp304
Rp305
(dp306
g27
(dp307
I0
I0
sI1
I1
ssg29
I0
sg30
(dp308
I0
S'9nvW1swq9kJ5omk7pyBExqC4o4OQAAjHik4AuRfFvo4='
p309
sI1
S'bGGydGk5aCBMBHcOmad7um5GqcgKg9YU6JHHKNlQIWw='
p310
ssg34
g288
sg35
(lp311
S'gAAAAABbvs_qI4s_ZT6ohmf0zz2RNtOPB34AN3EtwxVpHSKqrsR8xttc4GojR3rj1XYeJ-ETdxYoByQMGoJEujGB1v9v3-J3Ipsri9I-GgROTpIfayd2943hh5GUDptHgABJbx4EPDekoqhwOP84XQtcTl2cVBY6_VgkQzMCXKNzn-0_hylrUR9WAhmt4Bsbi9UuyTe6mrty2TOLWvWtJXwk8IT2ZYLox7juB1TKEeMR1-5iyHJuQgcxETzZndXcK0gYZuLhOuHW'
p312
aS'gAAAAABbvs_q80QxDD3vYtK3OuBamkemDx1GIAZS6AcZByqSDCKI_CGs4gaslKaNtD4rhrtCw67ECFBJaeXgMziIgSvpd-UwFzzPnQnbmSnZGqZVOVKdOBWIYLrabxyvYsD_L635urJt26oCpJW_FhRYHjl0wGoTbQWzYDES2FFKBPWkFLtpTJWY6rlFyjubHQwHT56ufxHLJYWGtXHzr6sbjcTMTAwT_5k5f90E1AB9qmC63lTHkmp6JkAKyNbem-L6yrYCScSR'
p313
aS'gAAAAABbvs_qp0RhMbZUau8AzkuBHJ1seSRqNC4t1QxRnzpaHvf1e_gqV7xQaTjje26z92ehiRg9Q5jh9WEafFwuk6eUyIwY68klp9F6_3w4rPGSJgAp2-sygyeG1lDCzLYq5PRzIcOKvEYhXs4wLNdjkPCL_fsqwBk4nlrzhHOMpadc4mgZCeVRp2wyy1Yu1kZpRdG581luOJw0w8WBiJL46esBHXcblfOB8B7cPg6CDdBXUx0ObRn0XWHBFcwnqHFPcqX7LjvV'
p314
aS'gAAAAABbvs_qQCgR2s2eGOxfwFyDhvcdT0qA3Xl1tcfoN0BnF_JdHmmDqcIbcP5wY6dNSQMpuIKEs2Wm5mbAIOCt_jxE2Rxa_a-DLC4JPv-pBlfK3m8ISyAJNGn7H8EnlMMEqLzNRvXHOKJWhOIo9k8XztESBSid9WOpJ04KyQJsh29IDcw9m94pjuUmw5JhEidc_wmKVvy3K6HIZu1XJWeSrftCaT7sqrQ6RT_GCTqN8R9gIRtn-XdzRQozFUmwGAsJf4K-laWx'
p315
asg41
NsbsI1
g1
(g23
g3
Ntp316
Rp317
(dp318
g27
(dp319
I0
I2
sI1
I3
ssg29
I1
sg30
(dp320
I0
S'nT-tBoW4YtkgzFCmXXlDNGfndBXlJbbknwxnyBu6c9E='
p321
sI1
S'lzRHu1XY88lI46BwJ07tiE0zuyj7SMFSxBohjRDisrU='
p322
ssg34
g288
sg35
(lp323
S'gAAAAABbvs_q-rBTwGF4wwVa2jLxpFhSt14wTEJD0SZsu7IliXKGReC9qxhJBaaOwihwkDOS9mgEh_cGUSZsgYsJxKtSp-WnJ4LQmU07Z8M8bzToSubXXe_gMzcDHTBumrXb76UoswtboqX6lg8eNx9ZEOrrT5xvgzZLsJDVPys9W-UlnBfFuaqKQQGJPooOMA6_fWe01hNkbI9v1-ZHGpjFiIZoNjvuuSfqxn5tWeRbHpFpIm0owgVMLJBcNt91pERVEMhFDBak'
p324
aS'gAAAAABbvs_qLawbgvZhFD8w5tLp_RCNa5IHot7ygESvIlyU8jJDpJMldndJp8_hKw5WScbxkMOOBq25voz8pQHAZ59ftcIogfKro_McXLKHa5exawg7nrKQWET2xS2TFoxpUjFHJcNb9vc4QpNW6ucSkIwlIWkO4RXuUvAbB5Hiu9_KUlLqmPOxt0fWGk9Af6MdZlAb50yXf3DqIxLpCZYJP5gAFWEfoe7LziR9Yo9ZLoKQ72FNPdudf3iaBdKgf_VAG5ScNiDR'
p325
aS'gAAAAABbvs_qCBVLHKXWI50VLGCU3fxFf9SGKYVuNjkQzCLjf03yBkpqw_NQq7rEwqRRMuzL95XYq4mSupYu_hRNyRph2npJxEo8UnGbnSXAaiOtOgUbRLqpAzrqGGqpKFHusus7bSr830OD9eyNSzK_k0AAW-gE2nSx0t5iut5KJsB4_vnwH42i2PgD68NYQf4FegCUZrZaza8sOww7QQ0T8YE6nKn6KkfVA0U37hFS1GSbbdTDxofdaYBYCsbR022mGFNUG6c1'
p326
aS'gAAAAABbvs_qtQoApsXi5uU_-HcSPpqF8aqYUBs2lPrLMpBOTot6KD2wNJwSCvIBOnDIOnbGe4jOUg8qQYPEyC4NHHgjUEsQtkttxmdusb8p9qJnZUjmCd6ZhMhyldyJVpmNGOl4Q33X7n8xdxs6jQ2hJkaDZ3j3WUYFD5TV03NfDtwUwVqiJ0fA6PmdAW8MrgDOtwr9yIPVcq_FQOM3_EzYpReXj35mt8H61PKjCcQ_ghOiA076ptvkCSyDZp8ltaeHfFWwLGbd'
p327
asg41
NsbsI2
g1
(g23
g3
Ntp328
Rp329
(dp330
g27
(dp331
I0
I0
sI1
I3
ssg29
I2
sg30
(dp332
I0
S'EFKNWFgNGexxzzag8ZkrXBTlP7NNappGXwSuXOG9KSg='
p333
sI1
S'gV09T2uZ8m6mW-EP0ffQF5f-8vKekx3xKFCjGTwIjE8='
p334
ssg34
g288
sg35
(lp335
S'gAAAAABbvs_qBM5lyXexCI72ELoUVGykjr62DeuPEjncagdwPmLTYF9vX9KRDj2HQUHQQH6_ESUJOwNFiPOzSIAOSnKtILw3lpGQeR8Yl_TivTuAK-RmtDU1tZD05RoHT1h_j_0a52F2btlbOo0yP_HXdq4lsicNPcEllzlbTwKKT2sC2Wl-5Ja7zuh-DGG6g6V8lxlk60IhJRcntUbrlOjBA63GCWOa-03oFEHb7N314NvpJiIame3cijOZeIRDscl3kQgNwIDh'
p336
aS'gAAAAABbvs_qc_FRBxmYs81GkX--RWdVY7kIeLEp5gHAkQiPOjNM-FDMvWd6rZTFyjrBmWpacryL9mUlqGEePcaLCxzS4hlUjP_N6KYox6wfmNZ1Fpy7acWanaSt7172fvDnKKn6dxKYpJ9YBOLUjXTcXDaqFbNV8IC-dK2llZ1KeZobTdquIx8tfFyPYdBqec24b-s6sdm-hqy0QYERyCxWGH62rJa41_gKmT-mEptnTk7G9LWgwktPKmnyE_r1tj7eRXiApWXl'
p337
aS'gAAAAABbvs_q1fP3z6WhjbVRMNjQGoe2gJNRASh_PqFwBSJ1vV3aRnyx1-OHz5zP1VH4zJE036pq6h38GlGhZkHrDEQgusTzPsV6W0QSyEww9OVLyto9J4kqF6wJ2O0WevTOAgLXvK7Cy6y2FnMRnuE925qLc6tD1sU4ZS89q3GXdJRPxvk8u9ppc70UKtaqbFOu0M2f_-9ffHOpSOTvqSWhz0Gi6WfQpWGcB_1qnNMMo7jBFoQA7HNsdCLQ03hOzl_tHhk-RxHx'
p338
aS'gAAAAABbvs_qkPR4AG2HF9YInzNpuzHukNHU5RWwoPW1UP6hnIGykryo41LdaERN6GDptFPJn2jUjyk7GvtkZJtkz56QlYlxfnRKqi_zGC45jWRPQL8tRl3HScz30Qn7iyewPORIVwF6hKeG-2D1b_aqrngQjsM_ex3UYUCvr-yQjPUVuACMn7PB3eJ5QTf8KlKqWBHm6kL0Vku57IX5d98MP89IrwuA3296aYcRAg2qi85WX6wRnC3ueWjoKZUJXGKmh7ThYlol'
p339
asg41
NsbsI3
g1
(g66
g3
Ntp340
Rp341
(dp342
g27
(dp343
I0
I0
sI1
I1
ssg29
I3
sg30
(dp344
I0
S'2PGIhTvbVGNZkt0wrVkqqAqK7raAJS0ez1MwGHIn7BU='
p345
sI1
S'fdqe3qeT9y8w8hmm_HVSi6jRz8TY0S_8UWEFZjuS3E0='
p346
ssg34
g288
sg35
(lp347
S'gAAAAABbvs_qOVueGmRzgwZ7wkwG28tVxAe0LCuPj7tSV9x9--Rf6eiCgoegb69412MMN75TWajpk4LbafYzi4mSbx1Sloa3GewVkhcAJ3wZTFiqgw2Z1KdEdlxWl7oDxlrZoqh3vCwH5FAnNJIyqyWuVN6bWRmR0xb0ZkEECf7BmKndR5H1o0nj_xdQ3B4n0kdA5HskK_FLfKqbWIkVvR79Laiu56VkooDHR_sGQz7tY3-b9cxObTHfUddcA6TPyblDIsmnDJ0G'
p348
aS'gAAAAABbvs_q3PdB2EQyH_DrdBG3LaBm71brxqWFwvEHXrOar4w69qK7aI1MUir3ks1yxgeI14ZZz93fVncninPNOSozJr3_m80ov2hApD9jP0LTXL5aXw2XNjSal_35HCwR30JsD3LfDneFMI-4ibOGlR9jLVX2H9hiHjc-PBgKivFQVnnuGSBgXxPleSNNF2EeSm2H3fHCvw2_SJYjs2m6IN1-ETwAZW8TFRyrWAcHpcFP38c50LSwzOQEfSr89cy88koYf-H1'
p349
aS'gAAAAABbvs_qoUpe9Ml7Mr4DNgdBpfjwdRdgg7yLvtzy3GiOfH3Ue21B31IDjLu0umx_Ahcgu29qvZrJQc16snEir9Du1wF1dczJN2MMMPdszWahB25V40Z6smtdyqy_SB61Uqrm7jmd8jqNwG3e7--LUgrRLBrJTFwoE42nut2WKbCI2eSEplAX8nzsZWY-Ri4sslox7BhjdBDeE1GVUx_jwfTMr3I-3KHKlDytlDyi9ZuBiQWI9GEstzgSPamCsgcwHNAaIXea'
p350
aS'gAAAAABbvs_q0c50rWK8Q0RsXYu4KhLwmlDjqlud2sRbglLnjb_NygfPeTAsPZjonIkQfxy6E3uCd0wyafGR53js9ncXzthYyBuTF0af7HC7nYYEkbtCrU8OqlncqdwrboNyxvEJIWAPnX7oOJTKXrv-ivL_Z1ePe_DE8Za9TmUDOj2ofi0EWxXdWk-ReNAhcYuAjz8wkDNnn4QwsPXV-W51A8opw25INbO3k_yPPkLj7G-eObLGD6_cUCRls4NDg4q7zzgAdsh9'
p351
asg41
NsbsI4
g1
(g66
g3
Ntp352
Rp353
(dp354
g27
(dp355
I0
I1
sI1
I2
ssg29
I4
sg30
(dp356
I0
S'dmOpCYUCyvYbE2Qda1Fd4FzwXUKte0XB3rQQPSh0fCI='
p357
sI1
S'ek9hioUtk8_oJvc9dwE7vAG-v76hZUZja2iAb5dNEK4='
p358
ssg34
g288
sg35
(lp359
S'gAAAAABbvs_q0Wd_FA9lWH-1UGE5QU9F7Akj00jLCOMZ9kPneAAJkmlHAiceazuVqPz9q3gkMiMzX3HI8stkRyKfhSrIfJJvJt6Ufmiln0abSUXYiKtySCnJMXgkZsVcBbbGpaoly5yf3G4wN9UM90GoEp4HIbLw0tV9yQB4a3Q63gYswnUyv7_smqBfSrHuuKV9MptPxU5zHDFaCox_QifRZlqR4Ec1k6K0fKX3xPJMrAjEg6WV3NqR4RWzlaHdiP51KsWZdvQW'
p360
aS'gAAAAABbvs_qfjdxDoI10B4BwzPTc6gPql6mOXx0kCbUAsIUXWlvAiKSKfHqU60cegZGT9LurG0kJRcbJKLOqpfnuYZrDFMK5WRGiq_T9pCFjNGU4MXr5dj7KVtRg-0xJMTd7mvGG9pUzpDInX_kELIK_0Bi0z0DIZslQjBqnuJrTJ_8_8tQzwDUv1BxOC7Yi51LsrmuIge09SQpF6pCr3fYVCjw1YaCGO-VwERHT_uiezchvv3A-wz_eLxTcvvJR25YCTcnz6Lj'
p361
aS'gAAAAABbvs_qcpj8kquMYrZCjn7SSqJ3rCmEBnR9Gjaw60onbv6mpAc5jqu34i3n9TObkwCW1p-HtJdjGORRpZgM4phuA8Q_1uMzbEshoC7cnkit3oCoogmW6zASuh-rLNd3UEdLNf881GkEda3cW6pZtXCwIuq0KrmjaOoC_ozuhWprVGgWY9Fo3RyW-ngYlTcIlcWkCVyBgiG4l6miFIEe-RmH5TSBfyIcuwLZgNOejUAog1gRWY_8eRDZdz2Ii5oCC0SoMS09'
p362
aS'gAAAAABbvs_qya_qgsidaeZPoWC8EABHi_j4kvDE9J0fAu4Yt9WkFpT7w8jVzwmUZy0ClatzESizgqCvLDHX1D8s5JaxUd_WgsMkESj4dhyqlPALns82gw9gLYDRYvjzm_W6gUIx8arnMYG8ry6g8SE1ijgRDVoM32EbTburNxuVDJEDAv8LxbulXV4WwpCxRpKYfy4EUftteffBPJlbqDJ6tFRx8STDQoF8a4xmoCnR07k3N6kEDQLMWzXBuG8yZC85WXNHfvrZ'
p363
asg41
NsbsI5
g1
(g91
g3
Ntp364
Rp365
(dp366
g27
(dp367
I0
I3
sI1
I4
ssg29
I5
sg30
(lp368
S'[0]'
p369
aS'[1]'
p370
asg34
g288
sg35
(lp371
S'gAAAAABbvs_q5sat0ufgw1nTdcvvm9yvKZijDBkm08IPlLANOnAJhQjsmeSS8Uelr5uwqYxI2HunINlNb_j9B9zY9t0EFmphthhfckaaDOSCOUleI7AT2kwsBbAOU1qQq4E62oBXycXDm39IqQngN_S48tnuA9njy75zRSM9FjsAQk_hhBr2mDA5z0RmXq0rGcu4ORcCBcajnSfc7YgAJONoD_kSXc010w=='
p372
aS'gAAAAABbvs_qETWUqGzz3Nq7t8U-g7SrHRSS9tY-5mL3QqNPVhp4IrKLAn2bW_vZ283miutkiargf7V0vGFKukikjI_l7V7Yf_0EFCv8qSA1GO3I4moz0inRs_abU3_xHiHDlNHk3L3q630zTMTsBfP6p5HB8EePvUCbSXRyQvYM5XOMHvPSNRQS26ZMVZJ3sYPP9j6po7MitEqcwrBwkLHz_SPve8_JRA=='
p373
aS'gAAAAABbvs_qodUPsGcM12vdlYkxYpZXREUWkDagDbwIQi1WlPCUiAfxix_90aYLN_pGOFGJhkc1Uspb7V21b7kwiMaHOJx28QFJiEz6k1dVeIu9dtG1dumFxkGl0FFDPPNb5sO6W46S11AgXoaMh88AEkbuGCMS3lwBHtKfwMcXTrYRWluUEz5YKNas9sU3yu1Phb3JPwFfl9apMuZXe4Hbjn7oN75eyA=='
p374
aS'gAAAAABbvs_qREFDsb8i7bIoPmfq7cXq4RtfA03kas2pdcVFjG3qo-n4bpY7XRk13LqWgh0N5eez5ieLsTagDdyPg0XEmCZsFhbGoDKaIusVaKqZ47AqyKF-PXzDmQRl875TWLXmmqmgCdo5d7oRJYv7TjB-_L3VAiAisQT7EnJPlAqYM5sEPNhMhCLxWSyyy6bXLcl6HIIg6CX9KsFaKuNqoAuunzD2zg=='
p375
asg41
Nsbssg104
I4
sg105
(lp376
I5
asbag1
(g2
g3
Ntp377
Rp378
(dp379
g7
(lp380
(dp381
I0
S'Mvvi9k3wlgSCG4RyWLs9diaNv6Tm7t9YupKmyb41pws='
p382
sI1
S'qOcmRsIa9Cg2zRgr3dKRKUJMTJekfXHbrOXXnbgv-hw='
p383
sa(dp384
I0
S'baHwlOs9uuUnswj3W-84BozoAA3R5hP0d0PGx6qqNrU='
p385
sI1
S'kD0eMNrG48cUiH2kIOeDyWVCMgUCirD9m-t6HcsxNCo='
p386
sa(dp387
I0
S'fBM_PSjZmdA_mbToJ4mHdjHopZ7fpjWy8gsset-wlv4='
p388
sI1
S'ussOGi6E3NdUQrRgyedr1np_aVEImdFUHEsPAQ-5bc8='
p389
sa(dp390
I0
S'oa9_vlg6Od8UoWn76VULHOjTTfpHoJRG7Ruj2_OhXzo='
p391
sI1
S'm_9ebBdJDc6VVre1oSSVg9HA3MDDTawrNLmE0w46GgA='
p392
sasg21
(dp393
I0
g1
(g23
g3
Ntp394
Rp395
(dp396
g27
(dp397
I0
I0
sI1
I1
ssg29
I0
sg30
(dp398
I0
S'XR8on6eCM9xTjV6oDyhx-QMu606NTwa3A4CwOSgua5c='
p399
sI1
S'yBgOpnhZyww9Q7d7NTOe8oJHhNiMjFjCOAeTpxISckg='
p400
ssg34
g378
sg35
(lp401
S'gAAAAABbvs_qxZFSvkm3RBLmjbrlrnBox4yFoV53naTw9OoXpLhFmhaktaSsHtZUJWINmMbtrnKaHBn3_Ids3s2eWEPpM1026TcucjSb3UP5Xdbe15NM-mfp6YkLcdd--Hi0ibud3Dkd2hIKYYOWsyWWbMAGR1QYdQOqlhtRh5h0F3MiTWEVYjk08CDktkxZ-w5TDzRZnG38bxoQMB4NiIm977C_43QDL1I-WEPRe3qdmNpyeRxJs5NHlg9baiDzJbXyTtvRbHf0'
p402
aS'gAAAAABbvs_q8CISn6QzVPmO8sSYOBdu0fXshGdhCtSZ_IDAmpXDh96Vn_wbzHOl1OHEa9FfayCmKjaji6Rw-36SvU91m3RVRPzFymRzeUW2uMmFu7K1rxmn4U9O6kLJn05ZZqy6UsD-uFMyQPgJ4JfJMSheI9-4kINoBoe8CfFNcQVLSyS65hNJl24dhRr_Wn7UpEAzPW349cszz1yONaLksYFiTvaKvn8VCxoRRyWNB39c6WHENogH-CFJ8plj9lo_4YG-JT2M'
p403
aS'gAAAAABbvs_qNrLBTjwDyxVxEST0YWgkSf5IRg-nwOd5Jq0x7iotsXNEZ655MEQQHqXs_cPRUydi0VWwU1q_vnVa03fzYLq2YRoI4NOmi6Z2x1NwklwZhAn1iePgT-Xmx3neNDX0tgMcSJycLCu4lPkhTOl_S8IhrVhkARP3thTfYzQuMXFpWaN8nryPj7IcfNF0Vhf77eHpgLptis_cTvKRGnjvIZJXjEbZEUCiFC5SwenubNVOqejuBNTPzRjkXO5s66-6qnqX'
p404
aS'gAAAAABbvs_qP0weAiQSCsrEvPac3qHD8F51c1EqpLUWVd_jBEiAuTzwkz20Z_KP6pjJGM5tf7gktk7p8mKxGf2b-p89r9JZsydQi25LaXJGn_8wlPq6PTorv6Mw5vBV07oibN6f65d0tWhLSQs3bWy5Gj-dRYo2LlS5IIinGUlszTzNeddQgqE15Zw6HvRrRk4Kua54KLCmnT98reI9RE-NQubUhXo1qAFNCs6_r70ZGCR3rhNaZcVVqLiLGOeelYFAoKRniQQZ'
p405
asg41
NsbsI1
g1
(g23
g3
Ntp406
Rp407
(dp408
g27
(dp409
I0
I2
sI1
I3
ssg29
I1
sg30
(dp410
I0
S'PmPlUl779Jbps9O3ksdff9CtT1LPJin-IDjQgd_CkKo='
p411
sI1
S'v2dxw1BjZ300u7REd7_pS3FBsHav-3ml51TQpZibquw='
p412
ssg34
g378
sg35
(lp413
S'gAAAAABbvs_ql439iqQK1OJsiAD5K9fR1NBwUuJEm6HTJUGkIJ1N2h2JQSRG-6QCihOKylf6o1J0PKLhN8vx4x5yFnhHUTuaxmEkfS73cj5HR59pQzZDmrKgB7HJ0t3CRtpVIYdMN1jOfJkrRZkEFZ0m7ilr2A0QkoQ0jcy3WjusRJD8J0l8D8TmfSqYAsFXJr6rncU2X5-pzrpn7Yqvv-8rNSKNXQ1d1tEOctTijd0m8GHBQmSHrl6-M8afHHpC1fnR9cz1JYY9'
p414
aS'gAAAAABbvs_qrk3Ik9X9dlq11jSXzCg0EZXtsH_FuNYjQF_7GrNrjY5i_q8u3gOdUSw2NddFhBBIkX-fpkalMyyU8LPXWE0b7jBsZxePNRZYtEJs78yNW2dkEIvpS_uxtrVVoBV0dLvYQixhzAtwkLUBqSRC__Bt5gE474TohEi4nNKONCzxTdFxdl8D5Ma_YEhZN-mTfLwunGdaawNWWNSfCxVix9FmkHcdkdp7UgYp1ncSTJ90mUy3HAe9buOgULeZZVqGZrFY'
p415
aS'gAAAAABbvs_q0asDT5J3NRJ5oL3URxUGQE4jfxGJkLsF_nT5zx-ldhf3ux4DP3LF8gvAFhp9wN4Xhw8ICgmmH75gLrXodwUlnzyJDVh4AfOUacPoHVWaGYJ-_WaPzNUpy-PTZ6uIrReKrYLQFq_nlxW0ymLodvGYe6djhZuUwRgP9lfIiMLJsSSaHTdX8tvSH6yGGhbW3FhKXFiE4AyeMxnPWbX78nqfYpvaEgFtlXHQdJXJbeP8OzGr53ME1ZMTggXIhhoXSnMU'
p416
aS'gAAAAABbvs_q_0tsNlTuHolkR258wjZWYZohr1FarVJLC46Ha1zsRUdSJ2N80fJY-XdK6RS5DQ_fciEjRwsYkJwAQqsN-UwqJd3F-g2c-0v0KkRyVeG0Qt380RLthYwC6_4GFUmccgX_G0tWxTNyAW0bxyIsLKRcodiQ45HXKYdiYp3CnJbjLoUD5GOdhbIgEnz3NBvNqoX2sypudiH5UD_AID8SFFsRGGcF1AyK5YpYTqdhqaSzCBVPdY-hBNHEdCGUVz2kpyWt'
p417
asg41
NsbsI2
g1
(g23
g3
Ntp418
Rp419
(dp420
g27
(dp421
I0
I0
sI1
I3
ssg29
I2
sg30
(dp422
I0
S'_5TutEsLUSjo-JDCfipO2zapdSHj9la1uOUEYeVKBrg='
p423
sI1
S'dP2nl1KoE6H2pLevAm7OSHmMnw6_drtm5BPIzfpkkvs='
p424
ssg34
g378
sg35
(lp425
S'gAAAAABbvs_qrQQIk-IzMZRtLJ_cwlIevEQ9CG3HSpf7piV7omJRUAny4hyM_D2cHUyZT03hhqhVcT4eUskGx1lfMvhyQJrkKGnCJEdl7GZ0A28zU6-kvfgKY2BjKrMS4aG3LkPYQcpqnQReftsXXN00oiCtS96ARcL6faSb05Peva7O_I2bBUOJUlD8eKneqD44iLRyUJ1hyHUM3OnKlD87-k6TFZU2QnC6iZURF1jrVqATH7xre3Hw39KTJZHzniRbO442gylf'
p426
aS'gAAAAABbvs_qS_daShMJiVlmWogxFMDtEQezd1FqFk4gE7vv4HAYJH8A_cMqLUfVDDqgzkvnDxKq8UMygFNv2mTJ5SsHZrLAi9-9gqP8QpezXZ86hTipcg_7Y8KGCTw7KP222EIshbKHLYR1MR2xTCpxRN0ztp6q3hNPXrgx1srsILk8sXbfTWNkB4z6UWfT7Boi5e0ZJZijdgpL9FVX57Rq10nHbeACMKpHkQ-0Hes6mP3XrE3DnZ1xghG1TvlZssDy4JU37pS5'
p427
aS'gAAAAABbvs_qprlosS8NPj0VraPfypgqYQWFp622I6DW6U1Qn43GDJW0ZhLgIqF7wIb08_E4nC_nMSg0o_11NMvZtqEA8T2FsSYvtcBFHiz1jir7h9ATHSiiOBPNfbn-SPEl5KcfrrYnuq6Ld7P3U1Q5QpPPgs11d8GpiBcEENs93I1oRLVm6SsmZA4aX3HnyR4y1PbGmqvi7nW8wv6SkuNVxJ7eOOeoH8zaY-oiCgS285RFIywfkKLdF_fnhUyk_8HNySvtjl2i'
p428
aS'gAAAAABbvs_qFlwynA2qGtkITkDFoRM1QUa1G3ho59zEVUgVRkAozpY1KY3f8pxXWV9U979Tqrj-QBL59lKIaoYqJS-B-hmI4u7MXo-K5p3wdc8_MUNGqrwYE9rOsSSROCDyWbLo_c1Okxe4b-RewCj-D_qHYhhRxQqqbCEPnlYeDPhdd86IkuFNpEbn_oLvl3NxcylZTfPSz-GeaPi52VcTGxN47IGpiFE2dFY82SgCe20mgRzJyV2KjqWZSTG_a9WrBzC6lKic'
p429
asg41
NsbsI3
g1
(g66
g3
Ntp430
Rp431
(dp432
g27
(dp433
I0
I0
sI1
I1
ssg29
I3
sg30
(dp434
I0
S'vrNi6_ch_pHHgsqlvvKYOZr-KcSxTr9gHY3FkThHDBs='
p435
sI1
S'JEZqAMCLvFGLTiOn3SIx_9oHlxSeXLLM9IuibKhUGcw='
p436
ssg34
g378
sg35
(lp437
S'gAAAAABbvs_qREIfCwlkf2UBCbbLX9z0zWKs5XjL58iLeZMHBRGCR4rm97hfky8fDksjuwN4vY8gcEu7wm2woRtmtExufPuNbFFPAg_Z4YnF3PifCbkEZ4uVl2bvZ3A-rpLiOWNoxdcoI6mkN76dszwU38y6S_7l8rGDC1fSClTaP1YM4WIN5g13d_J_u7ZXNhGswUwg-97VF4lNWbZG_S9NTtVsEH9rH18hh0yhamRDy1xlLIboMErFVq6TZjW-VMbeqcAzURBZ'
p438
aS'gAAAAABbvs_q-C8bC1XYJgvwqmdGSLYDGUCI-HbzsDsstE6MjfXn6UqmjIhr60C_s8ksMRuNdDPWe00R6r9Lc3JGI51BWgB9Lp5PxsEzgMumxnMKd1KZ3beWttN3eYph7uBWiWdAWzkPJl56XIbeNMcqkKnc3rpNcZuORh-3Ly71Y9Ty9g5RsO4Hr5iS4y_Y2kXAbQY5XwFkLzQkULkuOMx6h8QJg5lbozyIXNyOKaQJ_AvGvlUBgI8RJZF0aK26NipnT539EG1O'
p439
aS'gAAAAABbvs_q2hGOLHiP2SRrXppNRIGoRB6eXOYBoCh_j86heoxqNf2NgU4C6xgArz3WIZDtCm-Qg-1kQJ-gCziLcygSqRVaeOCW8mhufRTX8nMbg25ayCU-qvIhEZqjwR4ByaLZg_dVl3T8dwnISjuF_KFlvNEb-tYGTV5Jb5KED7SRAgzuUAEAlGLuifAcuZLyEKyRe8H6Rjl7qQGIJU8pDmxKAJs_wIgjvpUvSwej59YDEDTCv1sMXzUAuMndWE2xNAEY5BZf'
p440
aS'gAAAAABbvs_qcZh5ceyyvty7PgGEh7lY2vfk6zxlLRCMBF0R9eGx21qGqAmGA_f7iR5-5n5TMhzpJjTstiWoHHh-wqiKkO_dePQjX8C88DRbH-I41XpisIrhNm_X1ho8eoUVssB1TSOjKAZNv5S2WwSEdXkFlmrZFcLnz8ipy7EUahuC_HpTzVZDELLGTvRGwmVGrojIzgHStByshpN1lFyTbmYdrNw9YaZdj8g56JwwOgr0l4rmlaaqDeGeZC7KdBGezpgapmjb'
p441
asg41
NsbsI4
g1
(g66
g3
Ntp442
Rp443
(dp444
g27
(dp445
I0
I1
sI1
I2
ssg29
I4
sg30
(dp446
I0
S'sYsSdkmZPEtpvT_UrtZ7IBIKYWO-uVAV3skvM3vdGI4='
p447
sI1
S'Snvg4BGNgOba2LVHloLZba0uoNk9kW3kwHG1yA6XYeQ='
p448
ssg34
g378
sg35
(lp449
S'gAAAAABbvs_qQojIRn05MM3eGE12N4HGChcpKifMQuirfuUByfqkgC6taL2sAvNLfJ_xOC4p0iuH6NTmkaXmtVF6vJ_t6Nwn913uTlNGhjMMRJdZehltI_KGL8SNDl30fmOgyake1jRQFFcOU4bBfPst1py970NBLhHOs3f3luHZTlgTexmGTYQTCBRm_zFzs0oa1I_3skKO1mjTIdNV_ZumRlY81KJRHUbWtDPmVf3-x9nW6M98roAs1AMzry9vaqC4zb6wpLED'
p450
aS'gAAAAABbvs_qjqey4ljflydQMXqJ4F6JnJOqLj9FtlodeoBvV6IdLtxw9YZ_j9GLToHCP2kc7asShaxECE9xyVNhuaqWOPqzO34hUBYjAPLjcLE3NVMerUCSG0E2OGtflbKfTcw8OaFhySjtysEAgXBlhIklC0YKx5trGPTla0YNLRxh2AUIH0EznJPThMMvVLDNliBzL1HgqSAtGHSeVJkB9Fsd9dCiVxYO7Nykfq6_c5eNCCMhEOQ4FH7A6ohcNdSpBrDo-46p'
p451
aS'gAAAAABbvs_qAbGNIx0CKnzv-tmjwRWAFV-Av-K6dRC5v-GL35jLfKFCCkTPUC4aYOh4dOAYE6dmbBQ9lmDGyAorEQXLXQh4c0azAEt2lMrg5tHa3_hA7HoKyh_N9W2IQ483tv7KaDhwPmd-4DDqKgVpyxvjgZabPkO2EkGjVQGHKu0Sq0naida-VG6a7LxD-4BN2atf2AcKIJl7KDkK1LT-5gw0irts846kZbkJE7tVNrMxaPpRgG_DRvGPlgR-tG4-30XmxvtH'
p452
aS'gAAAAABbvs_q6l4xOOi-rFWMlrZSfffLOhKtT8PYJAaHckY9YGTuWBamqjis_Ts2LZoZ79qdnLPTq-nM9qR9skP_0crYfwp0XN5Hrl-JBgOa5dU-E1q9BvqjIv34K8Yqtv_PVac1PTmVMI81aYq3pMf1rQXIlu8u-3TFujBq4Ht6YC0iDbaCnHuJ6OIYj6Lp1PHfZTIA4ncMyfPNJ4MkfuNaPb7EeQetE4ewh61_v5yda3WA-kPC7BO0f4Qgi77fGlmdXCblbrZy'
p453
asg41
NsbsI5
g1
(g91
g3
Ntp454
Rp455
(dp456
g27
(dp457
I0
I3
sI1
I4
ssg29
I5
sg30
(lp458
S'[0]'
p459
aS'[1]'
p460
asg34
g378
sg35
(lp461
S'gAAAAABbvs_qltq7Gj65ICZ_bxI3Jcuy8YjoP4aUPcDMfZKQEEoRuwQP6lBi8xbkbBA0ZkJ-YeDRfUimMqistDViNFHcRAnM_leqVfLIVIoXQhyLKFh25BfpnOK9yyHfQcbu0b3V1eoDAWH9_sVXqfoqmf5dm5-6DzFQTkss0CE4ciV4u0d-_wm4QBYSSb5yj_Hi_ATCvWHZAje9u4WCzBNxgX64y_CKOw=='
p462
aS'gAAAAABbvs_qFJ-4wCH8ZmFTdat523kFs27QeyXYOTyqxEESwqOVtGSekhRl0pTs5ZEgNWOMtJRlPh2VEC2yS6SDMJXby5_Kj83LuMf117O2YZky_Owt10TlcfVjmLOBMv1nBs9LKU3Ua3L9prTJsl34M_LfUhxjr-ltuIKXRDr78CslAvAuBRE4W1JLdHlLr9SN6tcORJ7T-1tNnSzzrsHiL2Nisa7TDw=='
p463
aS'gAAAAABbvs_qPFNW4zjBffO4NkKo6aBb5BKzPQuXHPMW3mTQOiX9wczuknr2uFuMgVdHiojNXhgm1NXiWHa4ze-excD7qlhn5oeA8Ulv3n2iP2Uk3jotx-4FX5iZlerg9yx_RCAZAXLxBKqdKlyV095ONUrcVh0xyGpOy4el8_L2WQe58orSiBdHV1Xp4t5iy6CgUaPhGbYz17BPexy5xrLiGvDEavMo8Q=='
p464
aS'gAAAAABbvs_qChfdLqgsU_74NcrCG5W4Dij8xQKfMUz4o22zRuMsrPCtjFMgtRxfDFONytIl9aGX-B-OfcccH4z37DOtJH74Pkr1bUbUyINipYu7DUwXjZgjJWYSdmzkUOU6hyjR2O-9BO2KX_MGR3Qdjf48KdKzY38xs5MsMSQ3379W2KIHPYJTDpFQ07_fovMEqapITnG5frreUe4gX7KuiUgMVeriSw=='
p465
asg41
Nsbssg104
I4
sg105
(lp466
I5
asba.