(lp0
ccopy_reg
_reconstructor
p1
(cgarbler
Circuit
p2
c__builtin__
object
p3
Ntp4
Rp5
(dp6
S'poss_inputs'
p7
(lp8
(dp9
I0
S'FmmweooA2dysYCsCADv5WvvRa-qjzSCQzdkvTp8-Huo='
p10
sI1
S'DHrViK6wwM27YR3sp1Neb-bVIqul-HEy_Xv4HCH8IIE='
p11
sa(dp12
I0
S'OWjLQvHlmJHAK9TLNWPe2L0O_zzXGC92s9f0g_VMhHQ='
p13
sI1
S'1mWoAfPA9jX4D7cCQqpUlAwU58F3HptAcLPk8a-YYf8='
p14
sa(dp15
I0
S'CQOx5rS2-uIdHgVjSrYMrpSCd3SpnGRFQrdomNLjzoM='
p16
sI1
S'pXeNOIcyXry0gmkR6SoLaH4iYqJXkKXmpT5oUnLApVE='
p17
sa(dp18
I0
S'Q2X_HVeTjlMS3giuC0mvS6spSnd3P0rTX7CWnEwjKW8='
p19
sI1
S'D6XmH8Mpc8bT4SN2qYuktoVtgxUNojxIMjfNOcRvubY='
p20
sasS'gates'
p21
(dp22
I0
g1
(cgarbler
OnInputGate
p23
g3
Ntp24
Rp25
(dp26
S'inputs'
p27
(dp28
I0
I0
sI1
I1
ssS'g_id'
p29
I0
sS'outputs'
p30
(dp31
I0
S'94k0kj47tBIU57UBKsPPcisc1iVIEEVc3hYxehySMWo='
p32
sI1
S'CGOE3VvMqTa_qYZMA21RHZXjv_T06U8H25YqT3dlFRU='
p33
ssS'circuit'
p34
g5
sS'table'
p35
(lp36
S'gAAAAABbxDS9H-oD_Rp3QvNQyjjy8LzdQSdI9w_-Ezk2W2xCKdAUr-NBMnEMDReIW6OxfVqUkPh_DawOWLqds8DC9Mb2IosXGfiAik09dnt6pM-g8T10jhY9tFrweyfSUXoURSPEZTo2JZBcMyHGuEwvaeEJMwnuVT1Wnsp-DBV7FPImY84FWFy9u1xNt5Izo5s6Ej23TglSfkc_rpqliU-YeylUm06o2O24m03jrhyLsqWIHCJkzzyx3z0zm4cgE-XqpC7FPtr7'
p37
aS'gAAAAABbxDS9vlXVMCz9Q-QjfZYryeXMHSFb8h_TAnHwWozah3rkWHZb9WzYVx3X9Y9-l4Q3BHLmbpOc2jWcfODzhmlJ1v6-6A_XcNrUSykaRDgW-epLurZ40q2kiMp_677LYhwRGaI0ht9rNlt4n6Kua3qtdWC2h-1_-SYoP_dvsNm3NSTJ3Rmi2WTUB_LnCBlOFKsxP6u1_9xIQcTC0EaygBIOD652v6OWKYHutNbpnYDXUXM__THag3ZCbzZUQ_9YEQ-0VACh'
p38
aS'gAAAAABbxDS9jfRe9XcGhxlgKxecRnBT0zQyucUd3OzutAZsS3D9EhCk-o5lwjcOrm-8IC-Me7f7qzz1QK82lFEKtMYYNAQmPWuonjjfkO9RD7HTv7JLRzUrVcX8RCt9yZgSF475-WAc1DA4uTFm0aRmvzwlBw6WgDPre49D3Cacfe9RSeG_qd44_gETTZLah6gvnFk8f8EoxRv61oxSaMKQS_M62BZB0inFPaviKss5xg0Q-KboVchX4231FpkeXWNZ6ZXXY2Sm'
p39
aS'gAAAAABbxDS9LUsHcc1BleiyBuyjV3RLp_TKRa5YTv7CP4OaBs0UZ0-NGVMf_t_4-4FdpmefkIWzfIlOkaGUbnHnvBHNByfFEsA3zEKPcC43Fgqm7RoVV2UfU6kbnt21hJ4Vm8QBjcbuY6qSsyeni40CiuVeIJgZG9loOmEq6d6_Po6NCmUK0LgIYnXW8mNzRBj8y6jGR5t2_98GeMFgwkuRUbTzd8a9feP2sObbP1CtL86vIxQnhdU6yak9-dKpQWaeKrQvE5k4'
p40
asS'output'
p41
NsbsI1
g1
(g23
g3
Ntp42
Rp43
(dp44
g27
(dp45
I0
I2
sI1
I3
ssg29
I1
sg30
(dp46
I0
S'hRbhnGcq3HPT9AFoEd27SUbkqST7VHJ8V0B-N43GJb0='
p47
sI1
S'ScRo-F_cDyE2YAz80D92BPtxh9b8H8apw2yNYEzbDfs='
p48
ssg34
g5
sg35
(lp49
S'gAAAAABbxDS93hrb6qCbKdSFkNBI8NXMAOLhQofKJ03zVMvzl-_6wTqfQ42Qor0dv14Gwhhnvsmxao4vYegYijQDZ8O5IIXGneu-xvKqAkBPyUyO91rXpsrUuTUHCokXs5JSNzgo713tNsixcPuCTd1adAdRZLpW2Y5kyuI3ADJhuTS77EU7uz_kxKi96xAZmTlpz7TU9ko9QVatY9kAoYm-vkHFvx0rpiY0blh4wVOW7hIFa1oxLh-6BHHSIH9sr2fulODABIit'
p50
aS'gAAAAABbxDS9Xg55Wuww_Q8ompz8SsA0Ls8ZLTLFOMHN0UvwGQc20NprIAenFe0tnZhtf43nlvGtavUAT1kqL45bC1ReVB70nIWWDN5BN9rEFXAsc0iTfqrSM5NCYHRVLPtxQZQM2oXGq7mh9GfcTQpU46iQiXsPeRt3PnCYgVZq0gbQFAjieWi1fmByTkgAu1hvMbT46JNJYVZzobKp6d9OLPRd_El7DRuTblzwMx6xcsdGX89ZWYQNgSEMA5GJEEuY3keVy4BY'
p51
aS'gAAAAABbxDS9GTEdR-OamBHe769pZ4PxamMTApaU7X3KJqirrEhc1SeCdEHGAgG78Mo-Zzfg92TmW4vVWrW4Tvkp614YKjzKt4sAhuLrjgSFuOBXE65hK3gGJBFiqLvVB5J3vjkGzr7TJIS-27bogeXi4yx4YmgT1CPCwbvHfDZpHdtM7v6HOYddPgBOdx_Dcq95iC7ujmklxfX8gJRdsf2Zkcl_RFtU3mKwoBwaglNim7uz4INiduXV7PQhikafDS45sW7JyYN2'
p52
aS'gAAAAABbxDS9y2V3flkmm6bjhgAeKUZ5T6LBcUj8DbdizRA-TsEpl9wV6h-1yTJcZUFNUILI0dxtBZcc59PmDFG9gaEx3gFjEVybLs7FGzuxDDRDCK3dfYNBX0NXxuQR3rXyzbrhFdEYYE5kEmrda1PhJmujZsD4_kdbgvyrqmpRUkyrS1CZJcuAa5S4iRP5bglz80FKm09p-zMSqn1feDeRF8OV0kfoRu1kB4CcEDbc2yU9q8WI3Gs4xpyXa08p3vcttAqoHXC3'
p53
asg41
NsbsI2
g1
(g23
g3
Ntp54
Rp55
(dp56
g27
(dp57
I0
I0
sI1
I3
ssg29
I2
sg30
(dp58
I0
S'jAb7myZtmwlsjFc8j29X_wyW4OV5pqTyvG0VciZ1H40='
p59
sI1
S'0cKuHpJ0btv5YyGL167eKOaShA9iiwkNu1IT7zyKOfw='
p60
ssg34
g5
sg35
(lp61
S'gAAAAABbxDS9opBfPOb1kLULLcWJJUGBPonkkS2ROkGgvT82URdC1iik8vqVshrPxCPuOE-IeBmW4Jq_18rlfG8kdhyIVGtwFCv557GB1ZghM0iOhHTJOyMbv2W_82AhigktnvFdAoXqvKUzNLmTewNUOvdUrKeEsSppg10o2a5V0qLVLy185qaibwOHaMyXYtEWnyZ_fvCZe18l_R6NjXf0HHZjuru6MK11hwt6iBgv60XhD7wgAGtnrr04Stt6Wwh6_d3VmQ36'
p62
aS'gAAAAABbxDS952kltRU8YLHaQNjF6Ph154Fm-bDXlWppe2pNYI_q3uL7zwAheMK7LMSpVCzNxRgLKsUSfCQzlNL998RMLpHELhs2RCacdANjvrKCj1GD_zwreE6fKk2kOKXR_TSFoOW2wjWm7lVjIj5EmXTzdWVBJ9mKA7fgkCSBXrHQn3QQzJoEanEg0G2lqOdY1aatxS1hU3eOBDO0Qb2t4w6POU60haVcGWXDlfxRil2QCbrmBWweb3BlWejRvTvyABTWWG6T'
p63
aS'gAAAAABbxDS9VcN9c2XYdmIi_p6ImG_DrQF9wLGv3Ao7EAYbrm2G1UtMyylSa9lQnvi2PqcskuiZFQGD6vvrgWHNCw9G83vYfuORN7rih6__SyE4UeH3K39vbx4L2lseViue6XqlJgnY7uGzjPqeNeA9-Qb0D1OMbt8Xspze6eULSQv_32iJRKGHef_XaLqd-TBcAk_9vbnkF4LhxuoDKmBtN44SZBq4kyxK-mXvxOLr84Te7M7MTkTV1Zya1n2t0ccgcW2rGVik'
p64
aS'gAAAAABbxDS9aVA4hvhJsXRZ2C391JGMG_8JRVp8wiT3IUmjtKNpdelstsKvh2LbWv5xinG0vWN4hxLEPQzgAhaGOL_oSTk8G0wHIDggW6_hdv1ZFMNnvHPIqxs9fLQycLzEiVT9i2XIHEtm01jhkNY9CPWcP8ARGl3hriWHBEMg5oz2-O601YcIvpmWVJavYm9NkYwI1ZPj98COAJFoSRQyAjsf3DgwzAu9qH2krM72yE3pubELbM2P2ldlTcAqjnsqVG0xnIdi'
p65
asg41
NsbsI3
g1
(cgarbler
Gate
p66
g3
Ntp67
Rp68
(dp69
g27
(dp70
I0
I0
sI1
I1
ssg29
I3
sg30
(dp71
I0
S'agOpKL5DXWEf7XzDlsrVi_XmUOSbxZQDduXw0ptc9Cw='
p72
sI1
S'S-DNfc_tH-2jEKV47jtB_YaDr1MCF0YzJL_G6ccrWr8='
p73
ssg34
g5
sg35
(lp74
S'gAAAAABbxDS9YIEmQaVMLg2xfxbhI4P1vFAZ8fjjfQce9hUO1aC2VspcufnXVKucAoluNx11mlGDywnECS2Kz46LMUyCM1RffbX7DBt_oJD5reeiFhygjjUfcsZRfMBgPWtb_T877kW1VJipGrLdBUZFI2t87dWoPRiBeXC7WbCNqCuXrcL9rtsEhITVN6W1c-eABMvuuk88m42q7Hi-k7sZBeZPihOl91QAMYSDgWmV61FrYZbtJNwCJghLyMgvDRadAkTW8OFT'
p75
aS'gAAAAABbxDS92mGahgmZwNW6U4N5BIpfhAOkhEBuHI8H98Y8fhhY6VE_f6xjVLerQATXj7sDuutvuo4bDknD0PpG_etChYNjJxUTq2AmhWPMF4scABl5cQLKyCaDIDUgATPiliu6d0hthUjfd-WSLtuLczqDfa6zim9Ev1fGm-xjnmm8EpR6yUMEJxKEuDxGxQuT9qWhTSvIwj2RjYKw2DNkjKNc_5M-ze8dtMFwDg1mB-btWsuMirIy4eDfwdkThO2IWQ6qV3kL'
p76
aS'gAAAAABbxDS9HWRPxU29aWlW1ebyj8NzSt10LWlOTzEpW5zDHHW9I9mo8iuu9wKsoJZHDIPamopFVtnT4gIJRrAdjnUOANsDhQLgZ3b6E09tm-zeey5UIAqhUyxmiu-pmBRe609t60lZ5Wa4gJ5Fmgd2DzxHEuwExTkZTByUPTLHa2ZWzLuA2Xce2NWb2PcxN7PsSvpMh-iatx7Uq6BWfmZ9XsmWK70mfMxWpY2Ba-IQ21qoXdUn6SDDjj6MJHDDszqXOaVdzMuB'
p77
aS'gAAAAABbxDS950_l7JYEdMEDpg-IzblX1ES9eO-Daea7Oyt4fTMRq685IS8tHjJ5dc_q3kywAz4Z6bo_sk8SmpBrHtqLH92h5Nc8LWJxpa1rbS8JzMjxCV7t4bqFjzoWcDMIn7rBkuKW8JS8jgem6y8eH5xuAymjOlBSsz0Gq8B4suBr0IgEaR-Hk-lyDLpQBxCFF7o8P_DiqCgHXy-w_yP089ezF-vGyX5U5TRJtmm6_jA4krNmGuSyBvSYFsPNk2K7MBcC36By'
p78
asg41
NsbsI4
g1
(g66
g3
Ntp79
Rp80
(dp81
g27
(dp82
I0
I1
sI1
I2
ssg29
I4
sg30
(dp83
I0
S'oQzKdeb_5IwhgEL9m60lxF8cP-RarMEx8mhq4muzgHw='
p84
sI1
S'dncICxpGY5JnMjDkzXHATaNg2tudDghlDEgXBiZZGBU='
p85
ssg34
g5
sg35
(lp86
S'gAAAAABbxDS9mr4gQIZaKPPNQpnrBkbPXNtpXNsygyFCYhQnMJf-48GSH-mrDaYWub4BrfjrZREE8lvIi7BytRPRNmJsztLOhDsl1bBqPujeZ4C12ODdRTRFSsrV1X-dOwAfltTnOw_WGFEoPtfonwOyMt953Kge4r_haJ484Wv8DGMZD9DQ322fipcyQCfySslpDI57wLVN3cqTPFrwDziwKu8jOpxXp5H13J8sEdZQn_Yw3ENGTClsAj_YHL2lKfr7T2KO0jC2'
p87
aS'gAAAAABbxDS9lciMwcYvRM6eUb8qTIVYpPQYkSZgGlJ5NWRlDlycf0tFf-MhNnJG4rjI-sVRgNC_gdTh7dWCIPOk2KcFPSl0cWoOihVBmWsQFHuJsA9dJMFvZ4dG6N5y3uoNIdeeP3Qi-AzmiV7v4RCYAMqgNwxE1qsu2T_Mr3nZielj-hm0mCsvadCXAl4p3Kb3qmKMsMUCCl7q82_6MgLed690SRrjaoR99w1slYLbx4UCcDzE-VqLzA2Vhxyi6ZXXxEGfrlBC'
p88
aS'gAAAAABbxDS9o2PNq0Gt96W5YLMJUUnoe6peGU9X0Fxbyjak5F8wasvQJWRvi7oXu1f7Q9iBhfAKEpJYs-EFQKN8IRrAzlYYuf7RHqLaYGW7NyTLDO61UPdd-6rquxh9iVsWEe-gHBIjMPGYHsNJBXTCIcMDv--LLV94meMXZmgKNoMMjYnbM_e-f7X8ub3kuBcbCWpjV_0q6CTa2mB_vqilU3ZTnpY51S1uthafvPWbKYt_qljDpiqRXEXOqN5fA67rn79LGT65'
p89
aS'gAAAAABbxDS93HPUMXL3xzRRteSa0fQIKKBowsLOOvQjJAA6vTVvYeDkwe0AX1tULBg_lqXNJrGobyU0_8yzIsDEBQbR6Z4NaV__0G3pVUInoyrlFbE9ML9_1uRLOGME6NBdRIpTu1ZWixThaN-p8pPtiJMd8s-tSycZaeI3gK2mhv9gOXojZGktLSydJseQmJ9z5B0bvfTJrkwmC4JAZ0cc8wJ4MAWG90NZYMw7QmLSv79cJ0SNTaoSHQm5obt-ZGHD56dGVhec'
p90
asg41
NsbsI5
g1
(cgarbler
OutputGate
p91
g3
Ntp92
Rp93
(dp94
g27
(dp95
I0
I3
sI1
I4
ssg29
I5
sg30
(lp96
S'[0]'
p97
aS'[1]'
p98
asg34
g5
sg35
(lp99
S'gAAAAABbxDS99U_806Yt1jBBMAEladPTPmE8OW1QLU5w5i0ACrAJPrlO2JN22Aal5GHARSd1R53xXK3xYs7KiuQ4li16CxqwWBOPvpul6VCx7y822izGWJNs3hjUB9rQI6hpc4Kp2ElwIjFspD3BFMiy-2tPNzRrVMs8Bm97Aae8LJDdTTPVPM0WM9jzGWvnt8tZqe8iglLaSYY_qjBRORD9f_wTL5y_FA=='
p100
aS'gAAAAABbxDS90KYV0KEGPe9DhUdK302UkqaM04NhEHWx-nfk5kEvVXNnMr3lGakyyJfMp1FbC6k5eTBps_zL1PPYyr6chuCSCo5tTdpE8RB_TIo_grOpby8SSsVzAMROf-e_VhHBqKWg4b62OEbzeQMBLJrRSPdj253-UQPKE9yyD6P9SAgZYf0-juxOymA6wbvkasRP9hu6hGIIhGb5iXvs3nZWH0mF3A=='
p101
aS'gAAAAABbxDS9S0wvRe0opZxFty2kgqz0DI8_MVg_d_quX_awZ4I-v8KvZxS-R0DQTJUjiAs4tcf86Yr9rUmHq4B8HAEl1uKreP5WukGdJhvqTBDjvOhT6VGs8QmEIud4U-FTzePt9oM-iakyyaoA0YMZBpAvNf-jlcs-yqr7Kjh5fo3-k6QVFSqvTAclbE01EHqsA4ZN-sGZpsFp9iGpVJ5uw-H73-XLMw=='
p102
aS'gAAAAABbxDS9iccH8V5Kay_ryimHSn62Oj7CnzktXHO4x3Lm7NPmnBb4bMuBmLToxHiflFPhLdN_cH6uB7djNW2CMDsl1gnpH_y4trtvhDCAHVuHyzSPrXfKe6oliyTKgJJvWHazViOrt5sj9dQx4_o7NDYlZ3JfAVlGnQ5uH_kXzu4LpSckI9ql9VXN19CbrS3NBw9QIWdp8gZklbOpsMg9S5oOdnFruA=='
p103
asg41
NsbssS'num_inputs'
p104
I4
sS'output_gate_ids'
p105
(lp106
I5
asbag1
(g2
g3
Ntp107
Rp108
(dp109
g7
(lp110
(dp111
I0
S'DRA7vj1DHmzQ3AWfbvhivV6ZuWeRhbtu6lgerxeyOpQ='
p112
sI1
S'IyjRrDxgMBMBUwq4Oj7ljKvInBEJEy5tUSio6FZyyto='
p113
sa(dp114
I0
S'Cnkq79ohZkS05r-06vLx1I60V3chZOuChQlSJR9acLQ='
p115
sI1
S'Q2uRdkNqsJXj3S3zOBdixdTlNlwkjSuaKethPOs0Euw='
p116
sa(dp117
I0
S'DpUdxtvqVY3AJKyyPBggu4yNm92r2M4MG2MU7ocr6rQ='
p118
sI1
S'iU-eSAeiasHSGSasHVzNyC63wCBnKUltRO8WZzAAfL0='
p119
sa(dp120
I0
S'htcbsev0uNFZZ3RrTf9_qg-X7fpbQzKPpZ2x4Wj-bLs='
p121
sI1
S'MW4Gv_XvPV9SjQZ-ZT0VgPQ3oK6tw5wNY5bndbIBgHA='
p122
sasg21
(dp123
I0
g1
(g23
g3
Ntp124
Rp125
(dp126
g27
(dp127
I0
I0
sI1
I1
ssg29
I0
sg30
(dp128
I0
S'h-SH_aRZFT7ErOnqdFXhWO9JhqYDNfy7JtfRDhmRWpY='
p129
sI1
S'x17dd66UNWg4YnkGdcsw5YvjdGkd3wjzCF2IklzpiJs='
p130
ssg34
g108
sg35
(lp131
S'gAAAAABbxDS92piF-abrxRNMI9Jlsx1QCtatDFvO4tgXl2IjOwU4hTdaqVUfH8iy_c6NsWBIfNmOSdyaBM9RkbjMtSal4ZnsW1wWOTrb6-92VVCqvyy0xHOyW2aJc1VaLI2E6DHiPc_RynQcl-W_22JgGBOZ1v4adOs6wH-WG4-9prbybgnXL40-PuMpJIArKWmF925DZf6eEVyvagrKn0OXoHib3oNrp86I1MpPvcQ7esiQGXhatvidrcoj-3FVExPKTxcV-_Gw'
p132
aS'gAAAAABbxDS9x30kccBHxYdVMoUFvcqlKVbDTdRFxog6ztOq-Xt5pTD1s6arq8EE3TEMZiB5z-IDrqhsRF25NN4CLSvEbVge4z5SBHP1HTLvbXlpgfn3dARkoTVeFi3IRqFeZ8gld80IVmQ_JtUGKMq9mxuTx9VNqBxX-unpa45nxMKDDdWl0qSfQeRh2byrK7gEF2HMzBSZkGM1Eb-H0IDOR-6PA6i4RhItn_AyLXb2AEaPIE3poEXPcGC9P3SBNX6mElKKeDlp'
p133
aS'gAAAAABbxDS9gPLGOP7dt4ipC1lF9_yx6LNeU3Q2QWkffFIHVlhBBWPqgUEIJUi6HDJ0F5grz0uTb106efKSnROvpNY-UOu_dEXc21PfilAJtg9ZO5sijE5EGvsCq5W4mp8R77NLji_ANfHVk0tzV7HBRg1TsVzOgkgqZvzjThiaifvMFmyZi-nPL8yzIXvhTHZ1b4QVvesIfmNbpRnN0mbHS10AzSnQKJPQbdcqs0YXOGSr6FpijcyuMFjDDzDuGlz710bUPCFG'
p134
aS'gAAAAABbxDS9NkyxRqpdaWWqJ535XOpGxav22v9_0vHncoZ2DDzZy0diiKJ0BaGFkqmlhp9l8x7I3BrccmE_8e_mlQOTKD63aKhUAbp4FlWOqNbuQxetfLS2ZwGqYDC2FkfgZ8GSDhkPBeLiQksdnv9i1lizZbxaCwpy3SpE7oJor34YesRE9TzeWF-REJ3szep4xTcGhLQgntbzFEHm7V0zDzmBCq08ZWGXn13klIwG7JHCcaEvog-Oil24bKwCekniz-0VhZM1'
p135
asg41
NsbsI1
g1
(g23
g3
Ntp136
Rp137
(dp138
g27
(dp139
I0
I2
sI1
I3
ssg29
I1
sg30
(dp140
I0
S'5umXpjuPtLzNOi4nf10B0E5xE5skGTznWwKX0DWL9Q4='
p141
sI1
S'SODg6VA5VvSY1P4SPDZYBVR6lenKlD50d-2bYeJyJV4='
p142
ssg34
g108
sg35
(lp143
S'gAAAAABbxDS90R633NESiLSLYfwksRFaZZr_PzKh4Od7ifWZkbj4o114AI7rCqh385RUIPQ-du2k4rC8ZXDhnube0HHk-3aRAsKCwfxTwMmCOgnIwnzoEAusQl1mgF3bAYnnwpzUF6gpRVwEFn2I_DMh12X9KvtNeKsIDvWBMRPmuhs9LdKmFkByrDC14CqZPv830MkzlEqaTFHZs65gAx4sh2a_7jTFfScMbRkSwdoGAomVeg9UTCAjhxXSoqYyeL85jnwQ16sE'
p144
aS'gAAAAABbxDS9vaHR-b6vh0KhXdDkMGM1kNLaWtQF-5GHXbft0b5XmKzpTCrAr1DouUACwUM-NTq8ydkkBlKesuQp-yzNVBwVcBOVWr56MuZIKbALUQ9BlTnOuR3sjwKW2In-MFQ_Ne2Hjt1nzYM-hQsUucDj9V6zQB8VF15l7lenOewfnkWPQgtS23vqSyQ1Ehzv-YEa9GjnbAHQHnaMsE2SrUWSPB2eYVB3hZCXG7vXojtOB_wocrfCYGoWs_cJ62s6_ZAuzvzR'
p145
aS'gAAAAABbxDS9qD31Pzr1ncInbQYeCX6UY1F4HxnZb5KkSnNR0QMsjXkGFQv3ZkY9xm2xqn9lpUPV2B85yZ0nsM2eSdZx0SJ2g37PaSyMBetekhvR7fhKllHawhQwzP6CEygJ0lIiQp45LLFLloW-fACFxvuZayRJhN-h-uHTww76bGo9dI9oaUkmN-1SZ3WkxNRDdcBTv66fY1D85B8WhOCu50vVyP1uYVQcHwgNsfitFx5Hq3iOYWD1iSUKuy3awDkG6oJoBNzS'
p146
aS'gAAAAABbxDS9P6KoQoP69yoUm9L1mR2l0oxj-MDQcwRk8y3hxkUXb_2OmDPuIyNipmESNEsKJR1L2if4WjG2bHcAqZTRbIuHAfSjKpLeb95eK_N_xRhpNyeV_t_7uKTzKkXGAMX5MEqK1Sl85fv0zWexp1fkRxkOlgTbgzVVmd0qAtDF5EI26O4-Kk-Ze0bOvIE1tVgOcjvm_qO8M1ZTJIsoYTblg-T4h-1ieR72gA46NnO9273VzB0NUJG_UGAmjCf1Rq33LC2u'
p147
asg41
NsbsI2
g1
(g23
g3
Ntp148
Rp149
(dp150
g27
(dp151
I0
I0
sI1
I3
ssg29
I2
sg30
(dp152
I0
S'DbIA2xqt-347JKAwhGbcqYrazAVCMwXTVyHTqocN32Y='
p153
sI1
S'kgeZQ7uJFt-erQ1-Umt6Dxz9aM9Rl9fOFBFRbYwWeMg='
p154
ssg34
g108
sg35
(lp155
S'gAAAAABbxDS9iPIvt-nKn-7PkwOPksjyqAG6DEwizhVEGll1oKr4YID08MNUqXP5So4VQXkAPntWTdGnIZeKIiVBfzE55RFWDOnEL2fMNadc4InHoa_7eWdQXcL3hLaD4O4TLKBrhDyxPK-D_2OiDHXh-bQ9v6APogbTEsriLJ4iQalHEfg6m9UO7KxwGsQpJuu57jEp4aykuGtG43y0wqQaaYXQIBuEWRyfIGgnjgWmIQ1Z9uEnujGZ9D4aLbI3LFCmrXxc4CE8'
p156
aS'gAAAAABbxDS9MzE2ch5cE7IW8C_fU4Di4fnjM1xLWjBf0hYup-DNSGj3n2gryf4ftvVzVJNOum-5wuPJorjqqKMsk-zCrMfVktkVxfFUNH9PLJM5pSRF_EMQ3mWJZWFg_h9JuxDq7k7L25t-cB0UkEzr6mjOcfAW3pNWq1VOvspomXlsWlwuCXskbD_CvOi4Scd4HMXQWeqmzt7yM9rbibQEf0TTjW0cSnfcp-dwt_gKH-CYqJ47pq4p3Z5i1sRZO3ZySWlo7nJ5'
p157
aS'gAAAAABbxDS96DynckmQDeF_lF6gAKQX8DQI4mAULcfy3q8712zafZXAPnuI-7C3gKW14Fmrkihfc8fhkYH-k0g8WpuDm1z9g5TJkPdNQnhqBS0gwkKEcc8-GVEpnUEbR0VyDc9UgjKrQLrnaToiGc3p67VbexSP70JnEQFgpO_vwcjFak3f66JyVwuQFjrUf6zkhpJljshJcQahoQDrKFajKFNnH3Y5rkDb_vMPr_XmHzTA9Wff_OcJ0gSbvFwvm9PsfKUPH-gL'
p158
aS'gAAAAABbxDS9I0OQm_i5ytfXPHqePXkX5_ePAPJ5aOYQiLiuqm43ZZWhh6aS0mwK7RDdSA7Vlt8tf1_DtWqidKi14vuiW0ShfnRQI0BFI1K3us5E2R28ueXJ7nD4Wc2FoYvqZrMldKuNXcB49RplPB_iaKsjSuAZHK3g9g3SazRvNL1mN5Y7nssfgdri4N6urKXxqzw43P1xgSb62tKyZ2rLyKev9P5t8FiybwrVHkQgohktv0gtuuufRhwipZRT4zto_3G34SRb'
p159
asg41
NsbsI3
g1
(g66
g3
Ntp160
Rp161
(dp162
g27
(dp163
I0
I0
sI1
I1
ssg29
I3
sg30
(dp164
I0
S'gYZ-jmFwaxTM8x7TxbV6VuBZ5q7W8_jNU9mVcSxNKkc='
p165
sI1
S'CVKgYXz-PqOwAid7yvmkCzLU96xZh77o0OEmhV37Wz0='
p166
ssg34
g108
sg35
(lp167
S'gAAAAABbxDS9bfmpIAzCnxMoMyfIRkZ61eR0mccsUf-LOZyCOBOGhu8LHN6m3WBFFJx6ehyjK5SkmK65j1oRkOQ_QEAwVToSzmm3ynS0L9cseeTRtxTLoedAnmnXLxjodaaUpSonOPhOH9KkfokZ_bD72GUqAh17ER8SXVE9nNJU3o9tCX4GBh3Gmem1RyK90n3NNjz3UolGl6jQCcpG2M1ubeoywOJ5uxy5Mww3kuvNLTaW3jpLvP-8jBvhApWtP0Ftp3snQC7x'
p168
aS'gAAAAABbxDS9ztTJL-xTBGSvpSEw46TP3LiJqsuaMeN7i750oYxvJZtIbtGM1cYgR4hjzDBTcTPMn8jbexQKD0Ffiu7x6KttDpS4gLFvCJecEiHi3m2Iz_teZne5s5byNu5QtYSkooMAeIIqwaay6MMjvYTnnkb7QQqzk1fqehpCmkX0qu26sA4h7CI8YluI3FmuFIQ5-SAFun2yQiWd0Dd5J0dKdF_K0odErLMWfplvffcYtLOC3XGsqf6qyaIrfe8vbRSmkWTh'
p169
aS'gAAAAABbxDS9uJuwZd39xz4YM6sBbEKAzhg7f60aOrU2c813NH--scMpnMbbXdvbTQZ2i6xSHwJbnOE8AfkhQqFxnpylEdI4DukInNq--NydiJBiVLn-TH1psSWLQl1Xcb_s-WiBYR2zHOIO88fC6nbE3JmPTqsBbQQ4UXHUjEvpWH2hzbM0iSZpUOAqkGAV0xuu2T8JpbYXOf7R8ITuDfcUhdz5u2TdcI-sIhU_OSkyZL_Je-ijPVbqHsnMSaP286ck1r6NFcog'
p170
aS'gAAAAABbxDS9Rndsq1cFhuCEL1GShwG3X4kk2f4EDEjCC0kfa_M7OhQ5jY7YLxiWY5zjRWG6LncsRnc6YHqeGOy72ZRxznWTgKXgmVwuobUP0zq_x0axyzdNYu01ANQBVnmauhbf1lEXEJALSx_Y_uE5LnmlNItQuCM-7tQ_zF4dVhK0cw-IC83oxMpBxkqevZjOrRkgWNA4DRpbjldRf8zPqfcz0up3xoeIA3_uhFEGmsL3KTzRi6pzlu6JBxiPwTdIaCuJqRhf'
p171
asg41
NsbsI4
g1
(g66
g3
Ntp172
Rp173
(dp174
g27
(dp175
I0
I1
sI1
I2
ssg29
I4
sg30
(dp176
I0
S'qNegsNLr2BAzbmITu1OqEdxoiRTJ4Sy-mGA5RRhEDNk='
p177
sI1
S'2bASigM_MJGIZFMxHjLbPQAPsZp4DH6-UZrOKeWb5LQ='
p178
ssg34
g108
sg35
(lp179
S'gAAAAABbxDS9Ex9vey0qb_PSY7YQXmygVF9ZcqZB7_C_HJmrhakGbl52ZMK36kWahHtpNKBDaSf04zv_ziPKy3Vs2LMV1XAOJTUPNPtxymxpRvLq3eHq36d-8aiizMjmaMeUIF7ZPpDoDge8fIMXMxzIVf2W5mSoJJKMStzE11lL166pXrjV9wV1Q6lsHkLxW5Cft3dNQdx1Id6PbCx1-6QvHbDhwzlM2SLY4rZ9XBlHa7smSRF98da2ShrCZ_hoqHF9MzpGma6T'
p180
aS'gAAAAABbxDS9BQWh1Z1dNoPAis6BltaDmKSP0cqEXNzW_1XKx65m2tnZ6stuTtwYYafCnwCJp6oBpdTa56eU6vy73oMss1Gh7nx_TUU8M3LT5wT1eXdMYu3s1j-Tw792HhxLYs2kDtiF57ehKC-7MV-_GmZwiV2K8cseOtIzb3Lx8VHqcJZrly0ZBgBp9wArqmPpoEWNJ4o-Vf1s41j3pf5KOS1ZbpXqbf9D_R1ZeG3TF-3mFJSrJkbsNbbgyP0m4za-go_ik95m'
p181
aS'gAAAAABbxDS9esMrso3oFWtrQDkZVX04Kb1Sorjsb1V2mdqe4_ZuC-utDcOkc2uz57dygxmmyIgxRITpj0n5ZAEQvn8un4AVnaL778xcm33M0ZKn5CncwkcIffVzi656U9fBOCmBqgPLo6paOUwSERwSwz3M-kGa4C9ycVVQyITm_4CSARcLOndjXWUNHF0CynLc4_7B-bPll6CqtSSkLt13q4oOCuRzy5ld5K_NetCo0MW2uOX_OCDm-4pRAa_7vaaRNgIwwVF3'
p182
aS'gAAAAABbxDS92Gm_hf2_wCG2oI4JYT9rdMCOmpQSN2yFJsWAzjkJO86K4ee2mbsy83H17y8YIS8JA7qgeMWpPdEhbyM8wnO-tDdQ28hr_8x24sCzREYQyMOztz67OtSBYM433VpOE6HoBp-wtIU4njsh7VwmuDyAYLf5ZZqcMC5as8IUI4lxVTKVGSKRRQX8ynaXWQyGbe4ZpbqxD3fIF3ghYY9USqp7-o1OPC9PxkHIamhUtjGdzha4OCbzHSZoIpEJz3N_JfS4'
p183
asg41
NsbsI5
g1
(g91
g3
Ntp184
Rp185
(dp186
g27
(dp187
I0
I3
sI1
I4
ssg29
I5
sg30
(lp188
S'[0]'
p189
aS'[1]'
p190
asg34
g108
sg35
(lp191
S'gAAAAABbxDS97v_CcG5PmIBvrGlTHKmQpeWRvjqEQhTXnWySacyY7hywktEblSAnsqTdOCzn67teFj2ItyCWmd4L3BZ9WkYA40By65MpCH873UURHtgfWMEvNx9iyN1vlbwXPjYdkQ0k3OxyfhsQGI01rrV9fKn4Q5vOdE3RdrcRYl3DGuVYA05DatTX3kr0619vtwfdFsd1DBi1mcAsD46zc1EX7i3njA=='
p192
aS'gAAAAABbxDS92xdWI6V4ko3_Z8De23CH-ua9U-f02W_IbcDDaKDwUlYvIUXwk8A1za6uOhzOjG-NSHADPMyZnBuYJyITFuPuHLT4Do0HzEngvdxrWGdQnx0CFd2_qLxNSyd6gqJ05a_3stYayy35UMyrRdDSNuuJPSo4GNsZa7POLCnaE1whwHfyhqPyQe7XSEaTYBB7VuMvpiDuQVPSkebpAMY094ntwg=='
p193
aS'gAAAAABbxDS9rGkl49ucnhoRe2OuEgAyo5Ur1wdQSMsmLoHIlfYo43F5NRrb1vVIsBKfiq5zp50WpGaL2HD0OKHlZN7RGBGBtFE6lKgBOJr3StthwPa7kz2L81DJiP9Ev8qJMpxsCS8mK8vQJUJfRzudpMymvef4Ogv8v-ncUn-o4IbMGPjHZUPbpFzTdqqZq0auey9oJ9gemRiLin-fIorzxuiX2YLi-Q=='
p194
aS'gAAAAABbxDS9Gh5t8UrwjseaWreTRvVM62F_sGUfccGVt037UI3lExGitimIwdxXPpqb-7IKEG2wqAljm3__ItZie_luhetq3bTylZR38WxktvrFF7Q9MBTd_2GxhIkiOU_QsvyP08D8Oz8Bg2OJiFiyhqITjY-AV_Ptmyem3UB3ZAzlNROym9fbwQsSY-XNtsh0eXioHsmDgpNr98G-95iazflmCWIwcQ=='
p195
asg41
Nsbssg104
I4
sg105
(lp196
I5
asbag1
(g2
g3
Ntp197
Rp198
(dp199
g7
(lp200
(dp201
I0
S'HddfjLkrAWgw7Y08lSqjkSigZD02jAFw3UwFjYBLmrI='
p202
sI1
S'OeSPszFKndpZjAK0Cq4DczT6XCpO-HlTGL7ctd67ZtQ='
p203
sa(dp204
I0
S'y_9-X2RDn0zx1kcDlAXEEe4tm6anE__kzzpK30d29t4='
p205
sI1
S'q5jJIGmXU_FGW-Apm0UdHfs9Wg8mltO3ShxJost7h3U='
p206
sa(dp207
I0
S'Wd6tCOa9OXr0Tdd7c-JUjGJ8wBFVojTZDJbTWbfCTFY='
p208
sI1
S'yS0UMXIVFPNfst4qPlnzf0pe7Ict774OsrTkw0j_UyU='
p209
sa(dp210
I0
S'PEPli8LJng2RuPiRikZ4OwPlb0prscVM7ElpSQ4--Ec='
p211
sI1
S'dkHC1au6fupuJ2dyj5hNhKiQMkRb0lwZiSutv5R0fuE='
p212
sasg21
(dp213
I0
g1
(g23
g3
Ntp214
Rp215
(dp216
g27
(dp217
I0
I0
sI1
I1
ssg29
I0
sg30
(dp218
I0
S'P69TiSv2vVi4NzyxQ7-Rilgu49tsGgYL-rhkrWh9LgQ='
p219
sI1
S'VeLctL_pPDNv6n5HhzQ37r-5TMBYgWW1o3PPG-3nhS8='
p220
ssg34
g198
sg35
(lp221
S'gAAAAABbxDS9ZORT3guyIrs8xCDK-xXcpsd5I24gEyzZVz0KItuUZQ_F3kiOLCgvNUh5F3H0Mxoe8oUvPdZSINo7EjrpbTf0M3-djjDC_-UvY9BEpjPS_2POqb21FLSV8arVlGGThQi73vWmU1GMKEgFfPfX-dM_CHV84be_iJLfARJP39bQNC3iDnUf_2I6ADvMwGXZSNt55fa08ULivcq2IX_2gE_b1RoBz8Gq7TxZDN1ZivasrFeKIABkoh-G5QsV7z8cUg9b'
p222
aS'gAAAAABbxDS94OC4zUdlbeFKRapHktD_9Si096qpnnBg9bV2bb-XleOm5a_a5iphnU5CkMqyQUVQzJyyPqYc4JBrEB03NbYj4OrfPFm4XEGkedxgWWs-TaLYzjmMVj-kO7EinGAznQYNcnieB2KhfqpEcM0DhRnSXeiiLx3-hMxIonjnKEkQbe0JcxuJVrGTd6o6d2hl7mntkaWpmhk0CGWnSxVrt1GfwJzUQpYr33fInBuhJXUDccr08WXaVohR3MCeCOpT91_B'
p223
aS'gAAAAABbxDS9Bi3yQP2UPmW60bTOQ2_H71jtgmSpWYvvlMupxUZ8zh9KRtGGcW8-6Wxdg7eYBOP1YLKnWboW4KM7axMSJlv4WgCfPgtW9sgTF2tuynSZNmxA2I-pbJ3mEshDcstDAQsmdmukMWxM6K67WkYimTIKqC2Gx98J70Vb2Cfd4sr_urh54w7l0Fbe6fRiaRuT891hydQC7FJxFcTOzXa4iIcJBmZ-bmaZCXC9zjMROFWFa2BT8HPAa3QD7eedZog64Rag'
p224
aS'gAAAAABbxDS95sh7RnayHtY78vbE_Isnbs4IyXFPD24hS3SaIhWLdgvm5udOjBgplAhJAIvk0VxRMD0O9ls9iB8IAbWNEvU_VCrHKW20UgUu2cFZ1uuC-_wCB-XKD1QcsP5zw2XXHFEvPUNNzvdMrSZiC1SfKD5BXuvJIAsGu7TaJVHK7Kikli0SPqbSyDBuTA2SXZglXcBaxBrI92OYDCtcX5xlbtRuL5k-Iq5gyPeTvLwHsYNhFpFshbd5B4aHX0OFa4a1H4HZ'
p225
asg41
NsbsI1
g1
(g23
g3
Ntp226
Rp227
(dp228
g27
(dp229
I0
I2
sI1
I3
ssg29
I1
sg30
(dp230
I0
S'XV1p5-lgmBbqkhftMgohc4_MBHaN7ObZxOT0-8v3rl4='
p231
sI1
S'o4KHoBFqv5awp5ZqE14s6oSlHIhucD0SQTSV_efvwvo='
p232
ssg34
g198
sg35
(lp233
S'gAAAAABbxDS9NpyuPMgcq8U8F-KPvLAr-eZv9ArGzOCJLRa9sJLasRi3U4CDt0Ww1lE-y8APSQdPkgd6ocAhvgZh947lh6LeKrEXBflk__TywW9orDokDfNKYqMCLUyGe495WyAp2V8MzpesJ9eqNqQLixn_KS8KA7sy7yjrcFRR69IBI3yg_ck1oig0BSeuwKJfPjtGlCJXWycnC93yxhb9VQCDd96pIUyrypyyt5bi0iuwvx2KCXPjuSCur1VW5Cpmkpmyw11R'
p234
aS'gAAAAABbxDS9BWGy7Zz2ZrOjmc-BOE5V_pIROPU64-DJrtgTMmlmoZ0YrAXv_AQYkjTLxhLu6HyAC_xF4Rt8pbYKkuOpF02QTArcOm5r1yCfgs4k6Jt8aT53ngCpaHstGkZXSY1aQ2InYqu6mG07Emd4wROmAl_bDsUEpe6WiEsV31Cf9VDEfLxstTwxhaHLhkDU2HVr1DVqy_l5vZvz3AgjRJeFk9eqVSiRgdn6AfBkBZIw0v-Vcaoy5rVwefzvZceHUfPhHAOS'
p235
aS'gAAAAABbxDS9vAL_unwAyhyM-i-t2asBZyc-ko7bEX5FdO4jIkaDOE7nH2wqtG8Dtiw_iL9nwabiHG0cYzzA7aADAcZ7OZ5HRDigmn-UcgaUCDfauQNEFCQETx0jrYXKOK4K8Fc5xDyjB0OZ1DZB3FaGwZZ-rWn9wwap1F-ecROjB_cZbZYIVhEL2SC1AHdHMfWybQ109OM6c4dzIZAIhb0gUbvQXna8lC5jrF5zkbOkWA3BUpfBI_ZhhE5pN7OCWpps1hC2QqiZ'
p236
aS'gAAAAABbxDS95X4rTQ97unAxM7vkv0ddHJp3Zz5DnllIALqSwtgIQv3DR724M0C27_kPv-kkz6NU6MPHgkrX2HexA_FFxa6G6HzqWvHS1bgjyVR3HyhSB2zE5osJ1qYxbdBal5Tqcz53HmiQVPXi4CN6u4Xw9ni4CE7yDbjbT2pEhA_8IJd8F3WQPQDQWEyzXhNuDZE63_5XjUcyDxo3ws4Joh_BXza2-CRoffuJgmZn-RFI8kzbbtJmwPJHbwpeBZRTclX_BgsZ'
p237
asg41
NsbsI2
g1
(g23
g3
Ntp238
Rp239
(dp240
g27
(dp241
I0
I0
sI1
I3
ssg29
I2
sg30
(dp242
I0
S'VCpvUIDX3Q977OYV_vIxqE8a4zT5YBCVnWkFx23Vkqk='
p243
sI1
S'fycsdOyrqaru6DjLkgOR2-xwjDC47uBYf4gSHoF7R5w='
p244
ssg34
g198
sg35
(lp245
S'gAAAAABbxDS9cijcPgO1lzV0v7h0V4D46kXVgHoRgFgd1fTu-bgbME4VsVel9dSxS76Sp9Oybs4BKdvh-wFGtYd4mpNdbYBNRytz_tX0OZcEesMVBF9JbVq4NKAg3joppGrrSmAu0Nd2UI-tztnvZTTWpZnlpgEJdTTWi3ZdTtfE_3Aw5lE3q5npkLvBNSgrdBe2rJvi7uYYQt7wjmgZuPq2qkFsGEenMZVSeF_NCI7IoNQf7Zcc4_4GTvoyH5CxEw8Wds_g-Qvg'
p246
aS'gAAAAABbxDS9eHmqlg67wwpTn2Lvu3Xr1d6XvB18cS5cgOfxFNvDPZTNbz8WXsbL1iRMp_jSST0FKrrmVayO6T87jbU9DLPLtFj95eeesgMzxjjyQjnO4wGfRVEdemYSI0iys5UjHShiWmZrxKkUI2VMTbcrk0q9bUMgLGADwUY7LZzx0TgItGZ7zROlJHtVfzyHd1jtmzVCLx8ZiE3cehRt031XCb4A5Zsv9_RcAfhs9l2QYKsIwtBpqXg1VYbqGfFMMQwvPFjC'
p247
aS'gAAAAABbxDS9GVXXxOMu3xFq6jGte8VgPHjMn_YbS31s2MWaW9tCQASXQjz-DfqIDWMWVvHEz-94XpEtjmKydZcWW1aEL-qnEILhALB5svWfmrV0jDpcfS_koaxMOMcfm9ZGjSI7y9yXFBe9ihl870dOG-C0Xh0ZOVXMYHuUhuSNW88YPdPt9eOiLeqQ4Kn6ftpUrufxmcIUZtzdR6uUYXSon1vfPH_FPz17_WBVhl1AdZtnyPMCyfWwJv7yipBcgDhfk3CMpKCn'
p248
aS'gAAAAABbxDS9oGgkFtNNvRSXM07l3RrMihsY1UgdAqlqvM3xj2hhmhacBTXv_XPqy6zWyNKAHl6Ydg6fI3MaAzfFl0Dxaytyl572HyulsuBdX8UfWpAQwR8DvUGjV6qS26DXvlpHKDjBge6-5oMY2ooJEvQC4znlHtdRofjeNo2bVTWz_8A9thxgcj7VAZCHeTaPfwJDJI1TZ3SEOoQLCsWNCvJ63pacgKJMYP8k-NUTT1d9kiuxNBJSKGRZQWsmfbbP8ZyYSZCi'
p249
asg41
NsbsI3
g1
(g66
g3
Ntp250
Rp251
(dp252
g27
(dp253
I0
I0
sI1
I1
ssg29
I3
sg30
(dp254
I0
S'kfPi1ZiiRYx8KB1q6TO89GTEfreuGrc7PhfLy4C8gJ4='
p255
sI1
S'sZuJvWzmVEjJojqHhR9etRfERb049lyp8GinkTz8rFM='
p256
ssg34
g198
sg35
(lp257
S'gAAAAABbxDS9IsWnIBdxBOzaPu8VQ0-HSrVjV6iXzVYO9vuVjy4QstGUlICWbEOS79MJiE3k8FLtVYA3aQ1FxmGpM7dkdBtwhBr9rUQKDPWcMeX3LFudsVxotjlal9MWOtO0tSqbG3pWhEtt2-A0tSPaULBHu07d6XnTSvFxVqQ095a4o7lV7gtCFJM0nVesFloMcPd8BRkMAK6IKQXD9m4A12Nv_mohBF-gEVb6wyZ4hVc5yOzp4pg09kHjAmOTeDzRovbY3YAg'
p258
aS'gAAAAABbxDS9dCYzJ3beA1uK3VOOU3pWNgu0fMVJ2d2bZ8EIRc7F9GyE1-BF_CLY93dbkTRF8U2IRSOIDqDwMx2QmEz_mvEyaGAkzNv5MszcDTqXAksmeAHfF4F-hIlVjsEcZJdq6A9BPLV5bZho7dGnWk2u_eOjZ58_QLtsueHm8XocsLr5ZZNXjq8Fpoau5O3ADhC-p_UCQogv5n60JOvh2iGbUCU_JtE2SVVggcR8bUier3FcLM-D3j1oy9Y-SB6WGHCfPW41'
p259
aS'gAAAAABbxDS9jTLfMB5xpnd02hGu6CTaDttGpjURw_8WpdqfkiL1xKoAWde0TgDjJC3_4nK3sSYeYEQ7oaQtK_gTfb52-Wn_fPGaoqyiFj2O_InFcU4L1KND8qxo0ocULkpD7wWqftNBgcrR8taAZNE3au_vgsyGXnTA-AeuIz1SgbG1DrbJf3GeEU-WcSRFZfaDWZVPFgmmqCuF5yUxtfmXrof4iMhrAb2PllGTYMMQEByjfFlGinKh0VZaImPPvnmlVB6WOaWs'
p260
aS'gAAAAABbxDS9mdb_1rR4h7e_ue-lXzO0AUCJ5OwuH0rbN8aySNzmiZMvo0TZhhogQDiIrdH978_j92FXXsK62ZW1DUxRZ16XON7EG2ZYhEnaBIiL-Ol11yENRLdY1_h8Q1mURf8ZoU9t5yATKMiS2-fBCU1q9ZGaJ7pyF0ooeBL1yIPZXDNQQYDBdj79X5GrS6bEF5dvmY3zYSNpdqc3BXF2gfAdcQVeaO-4ivDgvWZn2Gm9C84UE7p2fTKf_F9cq8QxcFN3wlVU'
p261
asg41
NsbsI4
g1
(g66
g3
Ntp262
Rp263
(dp264
g27
(dp265
I0
I1
sI1
I2
ssg29
I4
sg30
(dp266
I0
S'pEAClBlc6DPFqCIhG3aFP6wIzyy3wb2jJLILiEIWEdA='
p267
sI1
S'_aXRF58JQzCvkvbkw-oXKHawGHnY9ksZ3JcdUR_PyCA='
p268
ssg34
g198
sg35
(lp269
S'gAAAAABbxDS9-lB5NGc9C0bHeRYR2ElzxFDIdSfidBBZeCyJ1qdbWcha_BdNyKhhTz0L5Xww5axHLO5AkwdSEbhcMHSegmFZlzlm7GFPLG-UWjqc7XZfj85n7hR5Z9bM89IRCjOmbdJXgl-KuM7WXuv-eETTfc0MOKv38kIzB_Rp5aCDDbi4lxxg2hP228Sxg-dbkIH81v3f7Zc1e8LzNQ6TdZ9wLauFIUXMTBu6qwdrgq7hx900LtbC4unRiDLLJTdDPdN0z9i_'
p270
aS'gAAAAABbxDS9UfYYoi4KuIkAfo8SkVXwP8PKz0HMsfAQ5FtkeI7oQNd2lVhU20nV1OH3BhmWK2sTgqWd6zRzHzK_2BS6sMxOaDZMmyZtjhSzS-v5xM2tOqFaRzCa5SXiGOzxG8GPrvLd0Y-BjTn2X5Mday7mxojWBhbgVXrl6JY_8foaYoH3AhUtB3jrdqDW3QO-pf8JpXbG8FN8HpG23WuKqbequYK8A7lz4w6iarRwWG3Sv9B7cXck5Al_TAgNLGoi_bF1seN9'
p271
aS'gAAAAABbxDS98J3XWosUl2ts8q9dQyzT_5qgZujP2BgF7H2aCH00wfE496rJ_WVuqiAABYnKQ0fnvio2-9XRpFErQTAmOrQBAGrDxbkVdb-0Qw5feQ2yQLT_yBeZAtEsYYPSBIfw4K2MLOP86QpsLyfIs47xE26A02mtXUcWRmJXojaK7SF_ALngOaos4s2tdkXLjWYqNzaz257iTUg6TNTVUND2DK1rE1IeEdUqSlvk8V5r_3ut8ALW8WfRcCf1fzJaf0tGxwgM'
p272
aS'gAAAAABbxDS9wEWDWJ07fbCI0N4-sBQiSRabAvC-R8Xjqz3qcgEARfu483Kz0iY-eYYo6rjzrNFQ5Drerf3XreNPKZciK_eLz4Of-y0BrPB9QdChfv5wQO3s7okKloF_KxnDDfathBF72WEIuqGBOMBwv7hoAowED3RWPu3pZ_DFDPnmfwPyjGjWlK1blRT1s8AJ5Eemj0Bbnoumu4ZVQCgDgilf1pvirwytXx-yfKwEqteUELyMKKJ4p4OtL7zc-DqmZLFiOPgS'
p273
asg41
NsbsI5
g1
(g91
g3
Ntp274
Rp275
(dp276
g27
(dp277
I0
I3
sI1
I4
ssg29
I5
sg30
(lp278
S'[0]'
p279
aS'[1]'
p280
asg34
g198
sg35
(lp281
S'gAAAAABbxDS9fzxW1rEsAF0g42xcf4MMMSkLmdXSxBgYrEnhcbs2TYRWKG-6qJiL0ZtrivGnRFb6sFgtFSa2wsEKyFOpEXzWeLDKCtnfhEgl6eiC_Co6Q2H6W4TYiJM1CCs8sxidklDFDqgXwu0HFf3-llUwo6pQjyOBOqaRAqpdhgb0hPJWI-dhxRSpPKyGUm3vF-vkbTidl0NyrJTDxi8ZNEWErM8nYg=='
p282
aS'gAAAAABbxDS9W3FgkScn6HhmbnrdswjiOi1XnEpnNETygdo7pslBMxjAn5BGlGUhsnqxsBIoJg26uKyRkIDHVVCfVsTm8CD7Q2xlCO0p_hIZ2R5DVUk8VFtGP-JYQ8o3v8U3_9B_8iPB2AsPOZ2sQY2CdZRrF0PLsUmTbDpNZRXRiaYvNr0EeEjLkLqMwMomNlK6acEMm42JXJnTQrUFZZjYlkph_DkBKQ=='
p283
aS'gAAAAABbxDS98mK2sM1dTfk7RPZtAvuXMCu9J3qhNdKuV3sEe5qpGPyZbImGbSeCC5p5SJL_vJTC6pUJKLyn0yMZLd6juo-lYMrAMIVuIdST_2ZJwAOmacKZ3e6zvuZdurjhSzMqivEN7PWk6DmKKuiKaJalV_-PH_qId7UReSxEyJVWX5au0WA4fDWTT0GaqftnYmR9QJ6B33emP2Zgr8OVMV73PXG-2A=='
p284
aS'gAAAAABbxDS9X3gWb7CNcYNwrjBc1biSjaF1jGR89_TOlm3mViFU0nLbgvtScmQG6a6G_hQFSDDun1NRd2Oil6dih_v_cn-k6jxZY_sYfAeEZUyY-8hD3zpOxlUEO-Zh-CQ8n0URSoienMRvggqE6TnYHib8p2A87K-T2D20dO2tvOtx6eJyM433HFLuKmkihOQTYwaNAWNJpyqH88ZBxZOQ95ueB7behQ=='
p285
asg41
Nsbssg104
I4
sg105
(lp286
I5
asbag1
(g2
g3
Ntp287
Rp288
(dp289
g7
(lp290
(dp291
I0
S'MyE8UQ-EV0Bb9tki4rwuv-OgoDV0DgpV74IyZg9w4jw='
p292
sI1
S'_Xmjz8_nQMJE60RVKANEv7zGF2wWFWmaZ_-GHXumw98='
p293
sa(dp294
I0
S'Zf4ICFTDnEqR9ycTsqBoiQEaUJLYiVysA9S72JaMphA='
p295
sI1
S'd-79t4ZsGm93KTgbSa5tL9829NgkMM0KVGOIxWXcxQw='
p296
sa(dp297
I0
S'ImtqHC8fBUKH-Y4KAjUOIj553NpUX3cru0yukkJzEUI='
p298
sI1
S'w-YxA329pyYdxXE-gg2ZkN5x-4r8zRutTQszgJPfHKw='
p299
sa(dp300
I0
S'F9vjJy1M43uT3cKAkRVuFPvitnpyHlD4hiHVD4ry1QA='
p301
sI1
S'0CjGqAMe68B4xdsk4nqSwR6VOhsGRMwUF19G0aCgeqw='
p302
sasg21
(dp303
I0
g1
(g23
g3
Ntp304
Rp305
(dp306
g27
(dp307
I0
I0
sI1
I1
ssg29
I0
sg30
(dp308
I0
S'1pdd8Nype9EP7ssLZeMid2nISX8xx1z6HBOCpgs70I0='
p309
sI1
S'CiDsp57ZO3JLubFKJpk_cAadnSmDu4_iEshlyXSIDeM='
p310
ssg34
g288
sg35
(lp311
S'gAAAAABbxDS9F4rGeNOkHjxF_fNTPmV3rCoOXAUQph4lWRVrCjUC6pilnpLrmwqNiMQB_llK0GUYp9bVl7F3erRQLulvaJBL7QwwoNWT8OXQ5H0LYPDic32U0pmeP0-Bh5xYlS4JdMoSc6wW11AeH1Ia1xskFWfelYJM0dLVo6gv-DDm3tufB1vGAni3HWf80jsAhUA-0Lnf2gbLbEw3Mt70F-dyV7XNBbhAlZuSwlceNJlZ3pYimWBF0qcYRc50cCk69X9l0gTz'
p312
aS'gAAAAABbxDS9mQFIZebCWNmHOesIY1isK6SOGYTO_vaqo85kAQOsITjztYYa5dP_OFWJqjCE_2_Ri7dErRW3q0eDtuHl4hudfqY57154-UN8he5MvxuQLSkpIjJ-YUUwC2Yo3tfS86I_OLK3P1ZAAxOpYPmxaA_10CJDixGTfYE73eNEvNjDMasNBGCrtlSXtimhJ06JvWpCpYMFCSBVqtSHSeAwj1T-5kGS9hBE1qLtXhIN-05rFiPVeTRYB4r_3CGWoUQJABbw'
p313
aS'gAAAAABbxDS9cE9BroDO7wmKKCpv0a9MaS1oFPpgdZJYXEGuGRLrMHcjCc6B--sG4DshNEN3ahyKTkpgDI_MRGgDFiTXpcr2KYbzSzQsUTdA5puDRGeQRoVJ_c7rOyhESOl-a5Vyuie1wHKlCr4m4Cv2aWwcq7KPRtFexaPcw8itiIHdYsYJvisVQLGREQdPyF5MbFOoW6qN-3CnKHef2M7DQ2efYCCQIG6NMtbcNaFy1LrBjyhNFkoHoP7I_DqYXMajRYS_j2DF'
p314
aS'gAAAAABbxDS95JRG_y3CQqTsaeRiorbYo3FYHqQRqV4bjbU8aB7vzfC4MyCOIUXGrDkuiMmcpfLr_YfKNE-u3T6vkXpg1nXQV5W_qh8TTt92J9hI9qZSAWJDZy8UE4pPQx0Z9yLHn8A0vzi01YyPrXW0a2DyEeYpsUC60EVKysppvA61WIHN1PYi9R5FnggwVdpDjFA7ZhXAVyGjFxTCY-lhS1MHl8hGO6sL1sLph_c-Tp2QNRMNHVYZLAuO6g8cuhDDSJTnCvSU'
p315
asg41
NsbsI1
g1
(g23
g3
Ntp316
Rp317
(dp318
g27
(dp319
I0
I2
sI1
I3
ssg29
I1
sg30
(dp320
I0
S'vVcsAfDziK-7hjWX0d_OxGvPiHqYyVghl7gmUpmoPiU='
p321
sI1
S'1YsL1BIoLn0qoDQSLoBhf72GUYl9Tl3k3daNHoiLjbs='
p322
ssg34
g288
sg35
(lp323
S'gAAAAABbxDS9EiCHoF3TEpTjWNUPu0LWlMr5mpXFXeW1LeHj4d7Z3G2qbgtlVmg3xMspwDz-yaqXJNZZ1smm3moptrPGhfacvpdNOefFGkT_PlUI5SMuyV-036vLs1KVA3_8zCwGKM76nCvTlfXQ7C2fgbVLzZpAlF2sIGwffLj24Xg1Podz27zkmS7PMBcz72qAFgiHbON2IFad8SbKGV4C_keHM6R9zTF2FLDba8Bm34dsOmPhqDYcT5dTff4A-u8G6UQ_2_qq'
p324
aS'gAAAAABbxDS9587J8HHtX0bQ8yXlBcw4LlFWeBeWKTML1GQVHWH64xe451oLTeeGET4PRs-jy7Tj8hY7b_k0S9Te0PCViEqvLg7jDOSwegnazmgy6xUbRym129oFkeD5s09sv1QvBbmcj7NvD3kBfqgcPU7eSKQ4W-Nxx7qhGk4Jg8W2uzimFJyF70OqnSZKki2-_QLKmL03hAqdPX22gEKhj_u-szHGdf18G_X8Z1FdlJ9-pB6GRZL8FwfxrbK__PKDRGN9jBF4'
p325
aS'gAAAAABbxDS9_ygd2RcDbh31OMRQijhNY7dAY2zANRv4t8uVmxxEVL8tZuFaoAnyCvUmdmB1-4mdyYwxGETYKV35sPkRKC39MesD03KQRFZhng8TwtMRXLv5VWAj6LNK4W7oYCb4GFVvqymm7c9151NPiMOoR0kBr7lKf_OLIs9eDjHhN3158YR4C6j_Nj3mTnkzX-rNSsGK8BrCCFdDa2VjN2-8S8TE2pGexuUo25jvlVuGDneAigPMP6PrsIvfN7uIFLKqtNT3'
p326
aS'gAAAAABbxDS9xSCUeZ3vKdRBq6EuR_30IOlwcCy4zRGkrCRrtP97UTN4m7va7Hkf4y1xpX_el2P8v3lLx1-JlNb8Z-I9G7mH6u6IAY-0erA2Oatuf-NJd7iMBC59yMqf7r1v0DRSaBCTxNu2XrHDnZz7NwPugTMxkxvfpJ2hnHJObwZCfBRbK3F2HgIwvGTzMpRhWOhpN2nSJmtJxXmCKFOye68Hs9vlfxxWzl9PXwGtPoTgdb7yiGTy23a2lgN866tVyxjrGdxC'
p327
asg41
NsbsI2
g1
(g23
g3
Ntp328
Rp329
(dp330
g27
(dp331
I0
I0
sI1
I3
ssg29
I2
sg30
(dp332
I0
S'61x-pw4RLCuGelGk9Obc50P4Ru76G3WMaGAAwT2XMKE='
p333
sI1
S'ka3nTC34Un-hjFGGtiAC_xn0aL9UTWR49QNDOljpqbg='
p334
ssg34
g288
sg35
(lp335
S'gAAAAABbxDS95Qz3bs7RFD1gKpE1fUmcZcLbofUQ0zigW-dGG5uCtQUEyZ5TsTltXAPL-zWMgYgn_BVZc0ywyDGT_WS1_mLtjSX7UqqoJnMz9pIXDtQ8kcrYIn9bkOCZVnwh_R_VsY7OKOGbJcOpbiBZF9G4N5iPM1Sl-FROWFXGpJwmPGHwloBBokXdD6q-Qbmwg3lCnXfWy-KO6cLG4dyE2FsvQdTiY-uYHu0Cv6OU8R6rHyEjUOd8P8tA0J2os-8L3ecZn3q9'
p336
aS'gAAAAABbxDS9ahMJkVYDizGdtu4iLUpDMWji8qDZb6-bwCFwPvfq3QUfsRAPcPHUBMamBM3U1uQiQ0QEJ_6scHqeV2wmh0TUcd-wfQZ59xtxChwi0EwUocs4F6ZcFtJcaOWrWgsN6PkC4gOwb2OKBtke1ZYTHhqw6yB-61HWJAeL18f5a3br_hSXkvXRGSE8a6QVcHOXpOhaSGipBd7HJaKUA7sy2lRI8SsdoJzQejZAG1W7qtBbljOLlaHXKCgNfFaLQG29EqDh'
p337
aS'gAAAAABbxDS92pvI_O77Q8eL_6_vI0Kk2lz79wdY_NgeWteOR3L5Va4wgd61KJ05YU-fDvIXxFUre75rJwcP_dsVLylMLLT1i_Zsi_dSm0H55jjCMhXCrQP-qfPab3DUCxBwf5tOWJ3mQZuOu0q81agdtnVFVZ1WU6eSG-I2zTUcC1QkGLNYU3lP-jy7yhYeeKf8XM0tt4nSj-rlIRLf9_wQmlW9OYt6cqWZyRIQzab2vBA6g5z2eXLvbzhaT_0ZfcufrhupHMvA'
p338
aS'gAAAAABbxDS9p1tl3T3I1MYvhCSesBMd_I3e5dDNk3PPb9gjNn-iEshMkazJiEHeOxV8l_mC978ucPN7-_8ubNWLBGvHjVOIKzrTvT8n6RKUdFBOa38Z6ezR6xj0llur0NdgLFaHdh2TUOLepcfGoTFeJztKL-gvmX67VP-hn6RfIbvTeMj9pwiEnaydjQCfbDMX6zRbGEuVeic5FZSQgsqUDRXkUR4_SS5ByzHRqjY7Dwv5Nc9Pgcdw4drxcsQ3Jc5OeQPU5Ro6'
p339
asg41
NsbsI3
g1
(g66
g3
Ntp340
Rp341
(dp342
g27
(dp343
I0
I0
sI1
I1
ssg29
I3
sg30
(dp344
I0
S'GjaRDybdnJyVwLLdzeYKi4JoADNKktR0wuZx1nKOdiQ='
p345
sI1
S'K3BOd0lGbSs7tH0xv6E-m6yh6gh9-Knb3bDyeQB11Gc='
p346
ssg34
g288
sg35
(lp347
S'gAAAAABbxDS9fUz2xY1mezsehRwTLwdyhq2rbkHJo48ub4UXImHWlfKFUztDBLSdOsUM4wPSgBID3htIuRmovW58jZ_T6yywyaVu1-URNeorbFrtCydo5rKU3C3pmNQnXwxXreH0aK3ZX_kHOvKtoj5kp8t6QU2a_UJq4vKBmKlCII17GJRtKYqu7_YeZTzq4QiZuN0J0ziNHmKiIzdSRvc07AGbQC9ZRpMQ5W7vZb0jLr4IRAaSk--b4OtMYojD0ju1LCbiqfU_'
p348
aS'gAAAAABbxDS9OJgND84U3-7CP_1PUpudTFcQ762u23C_q76a4HY66NZNyFjsok3ESaNyKjqkUHJHR0byAb6fv7mgeYBGYNdF1n7iRyOubQLs5vCYWgY-_kAHwl3LnwYo_avSqNM9xMFW8lAQt-1wvllZaDFf9AYC0v2Y_FI4gXqA0xxoPhL2yCfUS1kEHuHPTPbcHRqRCnm2b-u8dIe1rKOHVaT9iEdXrAweJL3_u8pdGsQ3_LoZFn3-NU1SRN7dlvaCs9pXjbFD'
p349
aS'gAAAAABbxDS9PWcgk9H9xEyMXEvkIy6d_-s7HwM4U3B2eYVQS60FSo-FBWX5dZpDmWruG0TvWZSAnNY1RjIqo3BV2Nuxb56M6mbYUUDrtKdpkrqrL3khHeB-zFTAyuCy7PCwcndXAqHg80xK-2Op1QZsHEWGSI2y1oXq4sNmIuXc-SQpgYdM5j7C-NCpQ_UU6EXQ5NwzzSZ16DX2KHTRRj-N3iE8v7Hhb9mI4W4TRdQdgI84bKwHFzWS3GL44QnZ-tBaYQcIow8f'
p350
aS'gAAAAABbxDS9nqlyaQRkp71fJHvkOdrv9XH5XzELDKvJPClthaxdNa0KPFY0T6dUYtqtDnhMgAneg_GiyaFip_eN9oU5nwom_HJV2lNE0elIsmkZpFxyi2F2XRJvXBrBqkDJAi3ru3umHjzIxtBPxg7BltMTWN8rzpLccDjEdwxZKHzM2FYvm_Q2-qqz3h6la1lm-Nmu_na4CuDi1CBl_EWZVQph2jzR_zt97mbpggpSEOWbcdj0IulyZJM2eKSbEEZTAsa1FuNC'
p351
asg41
NsbsI4
g1
(g66
g3
Ntp352
Rp353
(dp354
g27
(dp355
I0
I1
sI1
I2
ssg29
I4
sg30
(dp356
I0
S'azplcbGEsVhapiRjR6dYI1-x3tOnkjLy4CPURQZP6eA='
p357
sI1
S'mcJ-VK81oUdvtwG4febPs4yTxBB12z-4n-aqn9zVwpA='
p358
ssg34
g288
sg35
(lp359
S'gAAAAABbxDS9IwlJ6gUUMrZ-xw38aWPm_A60CC4g8fgrpVOfjFMJSGlVq5m7kBYVoDJWWUaS4BF6Qamj5GIkG8x-qCzIHCY65OGFiX29Rqcyu5QBhBWr8xwBd_qj5dYO8ENDhRSNpjeF6QO-LAsH-CPN-OlnNNrBlXFIjL_FuR7Do_f572ysyc0iqQ2SqJel2HGPIl9tVXAJFA8Vhido7eVpZvVSUzpwCfPH04ZKU-K0kXA_iuhORQmQLFfR8b5ObRuFcQRNkKKY'
p360
aS'gAAAAABbxDS9BljB4o1ElN03QR-aTcJF7kMB9YSsd8D6MvYDZsn8AjS98tim4vNetZYWALq9HErk-LJj9ny40Y4ff-8OYszdFzlpsqW1W-6M5ApC8TZzTWonavOA7ck9P7UMVbDaiUZHCMJpIHXgWS9ckF9XdPT_OsMhvAFtKQOWICjEDiDhHBne45JqkQRFT_bdKLSzGirY9_cEYFyBQvcBWzpLRo_aWzQZVdheVoHGIx-xuTz4tg1aSHFp4Kf1GQekV0IjTfZ_'
p361
aS'gAAAAABbxDS999TeNBv3TjnzoPfv4E9wtMNgwNAfN0b1euFrs7dYy1dDBZEVaDlM8zbTp5k88udLUY9kvEqZosj9CGBuW3jLFSTQPMSrs0BwfIbSoUJODgfCaGU4uIvtQVDtbIossRgcTdCXz2eCRrqvYlG6ErB4V3r-L4n7G6uaXXO8IgoEzO6JuN-skt7r3zZoTVJUhZgpVjZ_cVJ8FqJX5LXB-PdmQBFBhPll_XCx2PPbHQgBQgE7DGFjWv-y4O1SkRKof43w'
p362
aS'gAAAAABbxDS942U4efhxGwbQ2ibUcHQ2XMJQOcBZ607g4-Z4tpRJdueLdPmQ-58rwUAxpvkkMBewUFjSgUwL5kAVA0ME-Du3MbrvbBV9koJPa0XUv0J3x8e4Sfq32Ryz0UbtrZ8NMHhveZc2Jh4bGYYg2WPrEqWMTLs50mUDEjETzae6USMRWBEKi0TO9d0L4175aq2KO68lDR7PpNoGD-t3HfTrsIovJZYaeO1SO8f3U9DjXUtTZpP0D8HVp3raMphzVz5CqyHN'
p363
asg41
NsbsI5
g1
(g91
g3
Ntp364
Rp365
(dp366
g27
(dp367
I0
I3
sI1
I4
ssg29
I5
sg30
(lp368
S'[0]'
p369
aS'[1]'
p370
asg34
g288
sg35
(lp371
S'gAAAAABbxDS9kwR7R57FI_8QQZSIF33i1FcIDnAbvrUepHBtG4l2xqEAtfl1Sm2gx1QgGJx2U9P9ThwPm50byDrIT6m490dzZWOa0hhjdtsCRoYBLXxM_Mw6XH-zMwPTxqQM7KoFfOGxCWz7d6HfaJLod6EhBM1zR3Ua3bdswiMPWqMGaVnRXUo-cJ7bVOOAulZUQNwUhshY4n98AlvnvOMKUJnnKtKv0Q=='
p372
aS'gAAAAABbxDS9IUvpELIGAZ_40L6ot8jktOthiLpSKB7QLY0gpNbgpQp_jrpPWoP-PRnwqRcLVOIoyqNPCRdK9BmSswhFJvhmmx9itFUKFXC6cl8QBG3tM-TrZPfZVxexvDlaCg5_SgdpDbwPOZHBLqSthosgGzxWqvlDZvJc-HR1RbACzkjO3knbBUyAxJNtpbcfGYqRrad0-2YzlQdfWdbxazXbOiHvQA=='
p373
aS'gAAAAABbxDS9Z2-mD0JCTF1SggskiG3C43_6LxlTGDndkKbYZ-LU68Fq7WJiA9bMi6yUU3_EyXgj1FmwKiN5UGsE-HYEcrE9vqKaDcr8D6yVp_U5swNcJRc0oWyx6xNpqytx2GJ5gkHtSglbNwJLKF_4COiNP7G7bPPdAnr1ukut-19R_rgt6oSGYWWX9clw62vyw0ji86Xm740jgyBwCOJMkTZZ8ABu4A=='
p374
aS'gAAAAABbxDS9mXZrazHB8WS1PL-uxCPKwNIMbdEr-lks5CBPJHRXo8eY5PlIAuiz5X89_6LtK_GNv5xnnl_3BvqewuHzkIpMMh8beTkSUqvhTizq2rImbjr4xV_zTFObvTsbUdBnpo1qnWiAYjnQlD8UMVX-Re_wGBuTlukRMf9aS2AJQ-IFLFjkwQQhjhw0IOJ0gBG97guMqg6ePBqvdireKAiD0B5fBQ=='
p375
asg41
Nsbssg104
I4
sg105
(lp376
I5
asbag1
(g2
g3
Ntp377
Rp378
(dp379
g7
(lp380
(dp381
I0
S'a7UM16U5Zdy8KY-DEcAwYo_JDGRgMMRbx3NxhLHpS4Y='
p382
sI1
S'xcOonvChaD52F4g3gstMN4qXQEROg-MotUnVCSwL_-k='
p383
sa(dp384
I0
S'1ZvlIHwYogJQolqVuD0SBS9YgQ7QKjKiuHzMdMeb2Dg='
p385
sI1
S'0KUoN_jD0TMmIu7rkkZjWXQYDESSf2zxWE-hzBxLCqs='
p386
sa(dp387
I0
S'gQnlVlwUmxGwvEhsGRVAOsvX8Lx4vsZkdge91fnEej8='
p388
sI1
S'7oLZdfv0WAa4PH6El4gUm2eNoSOVN-A8OfrJHxJt5-U='
p389
sa(dp390
I0
S'OdlymSnp50XjStvHz_PXvg78ZoUM6rd3jyH8ykRKz-U='
p391
sI1
S'luFi4k0rqhwclInKkZ-J6u0caSCTjhf8inCXpqouQgg='
p392
sasg21
(dp393
I0
g1
(g23
g3
Ntp394
Rp395
(dp396
g27
(dp397
I0
I0
sI1
I1
ssg29
I0
sg30
(dp398
I0
S'qLb6AsvyoCZC3ddXIsAJ59vrpP-E_R25oiEWHbn0ZTk='
p399
sI1
S'o2WMAhXBhAMnybHydQMDBKDGrPR4pTRMA4R8JeNgoog='
p400
ssg34
g378
sg35
(lp401
S'gAAAAABbxDS91w-fpTXQ3LyAeOlcTqn1H7ZrC-WjYQrKZm5UbHWBjBBrIidEDzajIOB95INu_MaiqjC5MPuA6gAHq8mqt3lotMSzcgu_pN7VRv90ggqxJFF9Zxv_AP0l4Z3slyj5vdc6hSRpD_Wm18N8M5w5HveCIp1AHLiZmdTtA5obEG46H0x0HTmVhCi6Zq982p9p2YUKzyoHpQ2unLEVWUffOOuc5b5BaelbNacb65wjfjZXZWo4P8QeRnOIXb73I8wswEE4'
p402
aS'gAAAAABbxDS96WN-3fxCUyWphR9yZW-on1QEsbCEnlq2zS2Xp08ZuIXCsoCPhN3LH3c5HMd88hW29IYQmMtq5ZSd1tRZ1ccWqY34YK-c6MZJGyuMmX_VmfXf6CpJRL-c3tobZwPhF1FgWNeDIpx7gb9oAN6dsXETXXq_vqp-D_hAgBGBl-XsdS8pZMDSu1009FDvR8gFVbTJh2lXeORuUpUStqtg4KvfBoR-iwJ-6iwndkU1n5FtELgrUqwntoExXPHr3y9KQTWs'
p403
aS'gAAAAABbxDS9rnMk82pH-LyLgk8lfsBOtYmfyPUCDAPXNv6qR5vg8BOeKWuWd24lb16yExFQUNEVsWnEpGnjrDmb3HGJzsYBfv-jddnAf2yheN2TgOKV4C7pDsBcFqtm0ZG7ApyeHWmAOQdFUhm95-vm5Vzy4ZZ06HbC-kzVM2D-VhXOjpLKxBilGLZomJqa99_KNs5CYg4Fqb0LDRkqSNc2AkeYU0Db6GWtXvR-XcGjP9dSA3QPJ55qfkDKx0B8Da6kaWUhFp_D'
p404
aS'gAAAAABbxDS9DjH45QN98EOwzu5kF3qprjNCXxRvjT-S2C6lenekeTYg-xnE1KDlsAT_L2RXqUby6EcMghtcb9R2336-_EM8ClEC9JMvSijsALK8Lm4tt7MH_JIee1vnXdKUkUsayCyleGX4yRx2GXZNYAr5f91NBA1PgZmtTjtU_kQiNebyaWUiscI3MlS3rHreHQI6NI7z8D9tbRyFaWOv73yRCJj6XBtbAE2eCVbOqycgbaJeRUtmbVQ6fUaIsKgvjUgqaMvG'
p405
asg41
NsbsI1
g1
(g23
g3
Ntp406
Rp407
(dp408
g27
(dp409
I0
I2
sI1
I3
ssg29
I1
sg30
(dp410
I0
S'iRaa2TH1C5TRzhVLT--_VJ8Ju5NC8v0l_Y9FUKeyeV8='
p411
sI1
S'i1Offr_Pk8sM-PMOvDBREEBObj54nr4Fmb4i1ffQUZw='
p412
ssg34
g378
sg35
(lp413
S'gAAAAABbxDS9xCrpShwO84fzigPlusz5_zVcwJHAY65NCLJH_oZdZME8cI3DPeA4mX0X8f0osj18gwUq_qT9Jd0IZ3ZO4Tqy_vEO7h6CYXuOELxXNXb4Lg5o2T_yzvgq6g-hObGMUvUDOPQQc-8SfJz25LXDNitaWMZ2HGfgIQnnfiOy_5BQ8hnqHOM7fQ72t4CU996VXMgtj95zaXE8L6TYJG8_yRroLy78EYKr5yKPgm3cqtRYnG5d6wysyFOJcF8j1dUQCJ8l'
p414
aS'gAAAAABbxDS9zHL6MxkNrBFFOuBK67Yxnkvf0e21oYnVz-owsstbEKf0KNdO_TAR04vHsupQ5XYnXQNAZUsuswrMeNkcE6Dp7l9hMfRQGVynLQyx3_WgH0YWqri4iU1YRSbr7lpUn2ErvnfnzhZuD3U7J2rCeGtR83cx5rVWuV3JBJuChjk6MMFDqgyLo9mPxBCkYhNAmBlA0IGn5VmT-bOoCH9XFEjMZQtCzw_3gLrwoH1zwLxQUU-CK54P2arVrWobtAXJAKKA'
p415
aS'gAAAAABbxDS9xMSmcDgf9HcvJh-kxKPVH34Vm0bOSi4Fzr0onHcLddiqkMvmp8VjSxSR81c-oepCLBoUaZ_95DPt1Xmw_D9sf904rm3QEe7ZugaB6QOkVS_TBM1dn-P9MyATjYPz-27tdjLGEzFsUxrrJQZTa86kXD8JcDKRwtT9bTWJITPPqcaHx3fYB_MFJ4syjLqA63yxLw4Jl3GFViXWhlCvhvkUFFBivz8V-GFfR1_uex0UoQGvRyyMsIYzvqmsapjUHY80'
p416
aS'gAAAAABbxDS9yQmXgZfz41vddSshCDKg0y49CAPu73ZoNwvbbIZ0rnxmfUsFSJ-j_aOEzvI7Ewddv4ufAVe-eWKt2lTTWESATa9JEWDK02fPnvJvhb3gUnnlPy0CQJlBHDUSOGeM13oVMfECwsCg8QaVrelTzwSwHtjWu7MczFqp1q4RvtdqyfqoMPWdVvQF2pmMmaVSb0L--kI-tFPpFzw8HBXXZEtubHZF6E-A66zyqNyZ4uYpmyGhNOvO-fE_9cNgqaTPRy8r'
p417
asg41
NsbsI2
g1
(g23
g3
Ntp418
Rp419
(dp420
g27
(dp421
I0
I0
sI1
I3
ssg29
I2
sg30
(dp422
I0
S'SFpnbs0g7yOyuH2q-akCVkucpPA8KldBqUAgTEoLkis='
p423
sI1
S'QV98WB7RTk00xT67Uh5yVP-7VKNCuqX2hdnJtBfSnxQ='
p424
ssg34
g378
sg35
(lp425
S'gAAAAABbxDS93t4zPGmczC2RUa7dva6XOmp2nx39xWDSpGEzXr0S9pKK8o-LtGkdvg5YroJhyXZzB_LHpqddkyN-6j-iPJxUlzcGJU6F4XKgbiG8kNNABM5YLcY3B2JoVNdG-YuWNgBmfMVQuXSFSGeFR2PkFvUpTILqE7XY32Nc-QyLf33xi6Xi5jZ8X-Pyw8WoVMjJEJU38mKr1RA3LMC8rHj-ulCBai8D0pFU_SFNxdtGA7BxR2rOjmrHPkYZWdn-iBzG-3Ln'
p426
aS'gAAAAABbxDS9iTBITztm5L9F6eUz_dnEX0xWaGOAPNKWqfe45qG0kluJAKxLGlCbp8EEaIus6c5YYpYLq0VhabDwR127nqZFo5vpplpVwWRzIweRkIA8SpKlJ7kbnfP9GNbOLVtVR0P_2WSowOyXlxVuUlb5-gfnpuKxNDbOhamOsn48AohTaN5xShNTJo2d6j_C9mVtjkOAoRE7Wa-20X9qugLrPqn2lYt83Q3BGMBbEWONTpKgzI_-WUy9BJ__1_ujZDpp7G81'
p427
aS'gAAAAABbxDS95H3Y_vds3Ubub01AkLpYPsf6YlW30VpEN8TiGc29e1tH5iFL-dt6YG1CLGiuSdLsejDIm2aih5xKyYbgCwpKklZfaSd1LpSUhiEYAbxPvIrnS64CET9RHwWA0g1waGfdb50ikHzcjSmMaLshzibY3qqjNtMwQzIps0R_5tMgiVY03SmF2UoVdL4DryxBrryEjYbdmEHv2WS3sG4HG4p_xgKJvbq47LOUTliitTZ8YR0HPWyDPIO69M8PHDwDBWD2'
p428
aS'gAAAAABbxDS9giQBV0Og57gYx4pWYdedXq9Z71M24XqiNJeQl5zUOh1d6Jn6YQ-SJeYEhThK2t35AKq970RTltQElPqYoZCByyG9EfMa2uZ2IK6DAYxtMt8aylGU0wcS1dPJF31zjrJnV5uBP0UJDpwlRVPwxVPETX0HOLtZTpfCGNUSOSp43u3lETZC1otmg2MpX2ICoIHkHcr2SlqM5dq-t_N8tKbAAEfAZ6aO0iZOTXZq3VcUsx6s1ka_YrnLfBGM9zXtSO22'
p429
asg41
NsbsI3
g1
(g66
g3
Ntp430
Rp431
(dp432
g27
(dp433
I0
I0
sI1
I1
ssg29
I3
sg30
(dp434
I0
S'qiawhvTXikf5uu53GZhCJPk2u1vW9f7yRm9aHZtIJrs='
p435
sI1
S'5APt5S6ZAlJ5ZXIRd4BuZEtja6SOXAcEboHDDXaSR-U='
p436
ssg34
g378
sg35
(lp437
S'gAAAAABbxDS9sRMv1UB03x2Ji2sexlrX_FiFpkGYu7K8I8lnLfZytue95ok2JTIxFltXhp4uBRwrxFaf1xNd07KmPeVS3IZE8DPJ6YOhmuPT_uEvLmjo3LGHeQfXX7vQkvBW-w3ljJvYm7IPcIKFrlIGTl_9a0USp2HZA2XQitcp90z5yUVkp7Z9Wxn4RanpKp7F2Q1jML4bUTNLGcS8qzGHgFEPCi02Gh4Wowd4NGvy_NLhnPCJtr0kaR7c2SuQbOAiBchb0648'
p438
aS'gAAAAABbxDS97sFRPa7gQDnHewFo3FhQGZl6rnZH4ZnWW7iQZ5T8fpa4QpCci0jd3BApCJgD43H3MZ6L9ZNJyZSJaV4hlOAvmS9dAiPir10ybZ3xF8k8aJmbVrkOruf58_oAmWWg3kPlMNBzhb0m25CG9KqKLliSl9ev5Wet501d6V2UowS_XQTKhMQipvLzDJPtuSpKJvUmviL0SAzVRe49jvmzekwRNFs4sxMUDgZTvPvO3tALEDwijFG--nYdPifWSMSIZBkc'
p439
aS'gAAAAABbxDS915P3lXaQ1t48DvTBf7movBXa1X2894avxs-ZUX-QrEwt5aM-fp6NwuO7QvkU8L5MXV72ljEMCvg1W7-1Ud9k5o8BxP3_Xym5BV3UwAux993IPMVDsfHmXj9BQ7cmJ-9ArRJjQw9KBMkklGlRlsKPYjoM7uFAK8QPrxYgZE7E_St5gqTFtal19YDCxPbSHZ-IySD26K8mlDE8yMRGgiK4fTYCnXLr4N7zb8yihS7prsGbqQTbFW8Q7AfZgj6u5SQB'
p440
aS'gAAAAABbxDS9-0C5aflGEVOBO9USEUrHaGKOBeOkQ0mUpb9EkEGOxrMfRImXrq5IjryYP7kB5fDUUECTWUa1OXNZYFHxhiPQLXUE5bvP1JAU1c9wF7cFhk4D14y3P-wA_LWDFybGvDbNo3QniFwSynHx2WCRlFWe4KrzEjuAqFfC6FBzaUcptSUJqpoY4HRzQXCnzC2AZwS_yy_d4zJhbe7Tcpt7HXORpOmdC2RZg8YOAumrih4mTmVgP_OmFYbu1IDXeShUGaEM'
p441
asg41
NsbsI4
g1
(g66
g3
Ntp442
Rp443
(dp444
g27
(dp445
I0
I1
sI1
I2
ssg29
I4
sg30
(dp446
I0
S'BtPBB1815GCvVYJkK5eLqWTtHyq8Y7_hNY5eVYQQpQM='
p447
sI1
S'lb6phC23dhwb2H_LuCN-QgQlXz_47jMWS5BE_YLq57Y='
p448
ssg34
g378
sg35
(lp449
S'gAAAAABbxDS9OJYEGjSAx9HfEXrnVeLThsbzrtpqHq8K0ZsoinkOQ_yMzUJtVsSr7lnDGXmlM0NYnJJLm1Mz26PHdySBS7ftdZ9zFOWzRdoUVul_7gVtUV37HRZU3M0sbv5XPuThgqwx1unzdhMcaSzr-I8umZrJNPjMR_RBMjs13JjaAp4KCW_UhK-mv0IktE424sHGe9RJjHCnXJT9c0gRXKGcJj-9TDIY_6fXThNZrQKVpYpecrEjAA2QCQqYHb1cH8n0wzja'
p450
aS'gAAAAABbxDS95Esw-_d-RTd0RorEXNJ1kztLk2hKqgtxR8tCOiZlUoB9WQ7C7hdoa_tBIHhEniRz9E6dBEvpgDFXK48tF8qPzQYLyLtoyN9eMlPjeoH3XBFQKUeWaoNZG7sa_CbUInIu__C6_Mx-pUW64aBzxDslA5itTWK0wlVVEsgnKWVkGdcevjkmcKx8O6wOvTlKP9-Uiv0FDiKthND2YplaswUbqUVD5xqabrNpNiRDe78cyPQiBYpVXDTg-iQCIYTbcRd8'
p451
aS'gAAAAABbxDS9o53rwCup9-WeMeW0E332uFGIo6q5q6AQdHcxZ-sd0S--ScHUNZ3glSbyQekcDuV5MuszHs47vfqMcH8nOyREM4OxP7mwi8PEwKruFOC88JufahjN_LrIpJ6YowLFcTZ7ibqZ3hbwk3kYFTus2hrH6All5mdr0jtFnNWQ3uwi_fPAmKJbgpF7gsqjLhD03gIa3LBGECRtCzHqkU7jJ1Ucx2kRNX4zxwl_M0ucXjGZDuoibj50pFHxXJDFdnhVAmrS'
p452
aS'gAAAAABbxDS9NrR6mZKo1ByX7ZekxBcJiCDRGP1AiLitn6QAAIeJkBnEGikvCc80FPxJnFFgPnjq1N-Nuj2TAfP7ptiMKTBfyuDIO-DOqSTZOQKl6ttKMP_xJypXMazuzT-b5xbGyEBLCBXm2L-elYVe4tqGeI3ueJhcbdMPrP0P4bMaEG8qUVU09NtHQKdRYABBgFQJNqqC4iKUKko5LNM-1h-1SA8icC1W38KuIZMEx99J5Grs24ORKn9BM-wyd2k1PkWmqGii'
p453
asg41
NsbsI5
g1
(g91
g3
Ntp454
Rp455
(dp456
g27
(dp457
I0
I3
sI1
I4
ssg29
I5
sg30
(lp458
S'[0]'
p459
aS'[1]'
p460
asg34
g378
sg35
(lp461
S'gAAAAABbxDS9cKNvhMsWJ3guKr9BfQ7Ihz2XTvNtGaLPkfm3_Wec0gg0HpapmmJID4QFOFdUZXz_M0nPJ7NiDS1J7xRwQdSZcbyBVx1tltxMP3Eonxp9dxC3QGKusjUwtCV0ihdkUpqquKyE3K_YiIcdEicihHSeC0FGcRpXUxYiFrLTWr3LY3H2A2cBt-n6GqWvu6x3hI4vp26Kf44UPiCZuSxPuHhp2w=='
p462
aS'gAAAAABbxDS9EkxfiKRapPDBMlIcjRqaY8dpuzg5Y0phKhx3RBiWUttBbiBcafzk1LY6FptJen7v97f2Www8_q-ovqsLGApkmKq927pDjsK8DpRpvZqZhYSFXZOhuKQoAP9arfdagukAEv_ylGjt2LW4Vo5seYHbxulzaIwR5BMk4v1JacTi6LQF0EAl4JJvGquJw_QTyAzd-7Dk4zidBclLcwV0eqaTQw=='
p463
aS'gAAAAABbxDS9ZsHp5ChRHSGqFydRW503Docu-B-mR8lMqwUTr1gAGXptTLJ-dNrq0QdMIHPVVzFIRyZVTYRD516JGjBvbHjRGNG2i2-r38YUfKeSBTec-aJc8o3ehLHQ2cYeZTzW9NfuHz3QUd8cBzEEvfsH0oar4EMXKojMsYdNkoe4wFJPswGGQwnsqvtqcskDGhwoYgutUQTmqlhlm8k2cUaFbTUJBg=='
p464
aS'gAAAAABbxDS9wHy0Rwcw0Ac_xjEfOV8Rytlih7NUhtuUxU5zUjLuUNVsqRerVhjWdUftUpunw1bnym9xDF5jGbR-_BCoewK6tO4wSwmO9yl6MI81UzGm0OJbMxJCwcGdmKvL2fQEPr2sRyR3-P7Ll2O8Wf2WsE6k7yUrwKvEj6xk8ohgThJmoTupz594yQNoqxjR5Ap2Amyn-AyyiRnlV9BUczJaLGKFjQ=='
p465
asg41
Nsbssg104
I4
sg105
(lp466
I5
asba.