(lp0
ccopy_reg
_reconstructor
p1
(cgarbler_test
Circuit
p2
c__builtin__
object
p3
Ntp4
Rp5
(dp6
S'poss_inputs'
p7
(lp8
(dp9
I0
S'rPnhKvYeu1fSsUFZhSXDPAth6DFCryifPPSW2jYHKtA='
p10
sI1
S'ZAOuQOluwmvveUudnKWbWBZ63ejcZ3Dr_zGf_azU1rE='
p11
sa(dp12
I0
S'48ffBaUHFr5kKaMes4HLwpjwwueRbeSS1Ff_6sPU88k='
p13
sI1
S'mOgV_-BO_kGSWLoaa04DJZOq4-xdvQ0Wx2vNetprvIk='
p14
sa(dp15
I0
S'nvvlCJzlhijDc9IO3YQJyXx6D5baiC-d3q61guiMMnU='
p16
sI1
S'kZnLFkMipS0OOyM5cZ3n45gss9v4Tk2x4ocRTT0Inc0='
p17
sa(dp18
I0
S'KnZT0UoiDxW6fBJ97y3POp89PAS66eEPORzHUZKvS8g='
p19
sI1
S'BVz-mZ3695tphjFUqQ1MxRzwWbQ5JXrgnGxHQgk2xAM='
p20
sa(dp21
I0
S'MYv58Z3Nz_q4I7yEAzNy0hC_-JlLitvxJDMRjRkssf8='
p22
sI1
S'SPJ-Anq5DErwgK46VzSW8tCqsa1SYryYET89Ds_iu-o='
p23
sasS'gates'
p24
(dp25
I0
g1
(cgarbler_test
OnInputGate
p26
g3
Ntp27
Rp28
(dp29
S'inputs'
p30
(dp31
I0
I0
sI1
I1
ssS'g_id'
p32
I0
sS'outputs'
p33
(dp34
I0
S'JiJ7kqm1fDDn6xitQm6brEON4w88_xAwz1A5LZHjSDk='
p35
sI1
S'GQTlaRCQl43p6pD3W254u707DkqCOLkJa3KPcyzo2Lk='
p36
ssS'circuit'
p37
g5
sS'table'
p38
(lp39
S'gAAAAABb1-jbYspCv7inL3rlnWmK_upGiO0b4wmkO-p78IthDh-10fh6mXgTebxRiCZJCuaUcs5JLK3O6aq_dKa0KBt3e9Ofkx_IVFlqVVihtidlxiBOO90tPL4n4hNKar__-LbutoHpgAYZhiHJc4fSeD4Ltuf_GmVg2fJ3PMnGTD9g7AbEcg0aTnDDp1IaYcyx0wD2ySLg4vSfJ3PEDY8avoGwu5VUNHPS-vKBo8N38vUPwce6bsweiQ3En96EjWPXcAo4ZwCN'
p40
aS'gAAAAABb1-jbQ2_UVidprN94HLj7kirXUP0d1iN-gVMPro94MjOSqfHvyn5sH_FlEHEiN-diXQc2TEc3Yw23cgtH5cvUO3Z4k2p9VVTDHLVENZVqSk1SdEheDkpx8GIYWKyB8o9ieXKAi8JNye99pjgM3LJNdV1pp8yX1Iht14QyH6C5Ymf8_29mSIKGEB0Ojyl7kS2ivCwGWyRWiVKR64GH2yaxuVfZJoSYxOSuA6rpOZV_FI2I3SHSyXOXB-LKsYIe_zgaMdcE'
p41
aS'gAAAAABb1-jbP2qmt_iFKcSxEqB5EkIZor2PE9XKoqDykQ4FyrnsmOGt6fMRN0AQ1Jyb4EzP-C7R5kbcV0x8FwAlFJvZjvVpyXiolVW8Db3xy32VrsJX4JEChLf8sfHuVqGdwRgtAD-uHiQiFSQ1GjJjIjm4iiYY7ElypcCkTxREt9wp_nxETscE4l6SskVCcdFqYf_NQm26h7kbb7f2VleWHpxpxNQhP3A0V1GG1qwnTuoounngME3yyPJJzGe3jyogMWFGE_NX'
p42
aS'gAAAAABb1-jb6tlvgf3aF4-HYqO9Lso_4n6xgCb5Lp5KF36H1C5KIpK26im7yze_ITZ9_JezDc0SPWWKeqP3Y91RRSggZkQFioBY0BzGTD1z8l6wKdQkkjTT5cixq3kF0-pjt500iXdZCLqjQtryLWQXbVc44spJAsDcooy_M41FdHYaFAIt6y-Q2b_LxjELgkFhtafXhoW7ACS-ndELO-t228KnRBCzj3HbhFFvQuisVhW-HeksgA7ARx92kNkFEh2c-h71Tbz0'
p43
asS'output'
p44
NsbsI1
g1
(cgarbler_test
InterGate
p45
g3
Ntp46
Rp47
(dp48
g30
(dp49
I0
I0
sI1
I2
ssg32
I1
sg44
NsS'input_type'
p50
(dp51
I0
I00
sI1
I01
ssg37
g5
sg33
(dp52
I0
S'ZAHsQMfaPbFwHYqMPYdYIVxlvyhaeh-d4eALLbedtec='
p53
sI1
S'nQTKHF65jTnChX65XOTfhbg18fDDGaULf3vD2yG0yh8='
p54
ssg38
(lp55
S'gAAAAABb1-jbDrteOy3a4KOhlvmpHiY3kmtTB1s7k9s8wLvwjDerELpA5HWoxmmBjgdi_IK3U735MiGIECcTI7_dgm-CT2afj0jlPeA9NNCASu4HtJztkgVGg1TJK1t-RWSplvs0NX6NzTD44_oI5OXUB1q5MROY_5sfIsJ1cxoGjaGiNEQlN3BmktGrokkDcC-25q_2go7H5KSIJLxdl63iwDVE9erxFG78yCl6WbtQdueAOachZEgzbRpd7499g30nfIn_HZzu'
p56
aS'gAAAAABb1-jbl1Zfrsq1YZyg_LiBMn8MV0bcgyRV4sgC9cI3EMUHk4krZLZD6uDL9HfQ9Ick7wBsPcq71kNeYaO4rq5Mo9ZLDIAce52KEAG9McL-KTp1Qr64gEpIu0e274mzoMQcEHUagfwZS1LvWCNHyH4vOkJhbGXDkDsTjR1wE88JPoSPS527aek7kb8cDqdqQkfaIqMzhB8lvOdsJcgK2uNYUODZ7m21b4HAkLAZ5HNwZ7lUTKQDNp17IGwBZOmAEm0r2LEH'
p57
aS'gAAAAABb1-jb1k2J4_UtBHaZGGTPaBy0YfQfUNEX_W5CWavB1-MDWAqGelBnISajTPhUI6ZOErEbP87hk3GZjS4xXNb6QmcEKz-eGZLRDMSBVBcvF6CpiYxTcUNzUPESGB4L6BHiI3bWq9sVm86_gJNUsOg0Okhu2B3Q0NarPPPfudRpMe4evzIJuAcY9zzs7Mcj5emqZ_Vky5-msMVjKYoIiGL_OLql-PsmxmK7zPQVYCY75m08uNN62aU5i9o-OliVmVE9MaIZ'
p58
aS'gAAAAABb1-jbfK92KEEPL-kgV_XmlNOyF2L5_Uq5xPyPN5CeY7dMFhStZT1AD5_NxN5ZNNw8QjBOO1DIl1wpcytZJ_1XQ0bZyOyrC7sueiNxNOCChW_wiHd2VPt5gy1H__PPPVIer0TY9jieSUejWCiuqD68O7ebXYysMkGdJXBKhChBuwXoSE0k9fgTOv76apNi6C46n6skfibDUpkqWL93NZjcjHZC1tY3wW6bp7XHGGf6BfR3iD4lwYvCLXm0wba6K63h0rjk'
p59
asbsI2
g1
(g45
g3
Ntp60
Rp61
(dp62
g30
(dp63
I0
I1
sI1
I3
ssg32
I2
sg44
Nsg50
(dp64
I0
I00
sI1
I01
ssg37
g5
sg33
(dp65
I0
S'yHYx6K-bChHy_vKG7tu9q7skRHSrLNeGKgHN_nDxcMc='
p66
sI1
S'RaEjcKhCEfL_EpBeOtOJMxrtE5m7upIKHaOVnKB0VNk='
p67
ssg38
(lp68
S'gAAAAABb1-jb7rTpJhRIVm-5XHDtPh89z7DeVCII0NgbRkm8MpfE6jY5nMjc3B962voN4uvtrYl313uk7RkqCgFmxMFqUGsc9_qZUD68NojXYufhfBA1mH7KyBTidsJubyQGGoi0XAIIJUeYXxRhs1QXMdtzHeB8Qsjn0WIJANyAZClT2s8Xt4z1Nn81vRHG1Vz-PeduKPV5vSzEl2ay9aKKPvuz4rZVOkjlh2HJlWHb-9Mo22TKhOBJ8EAP5uIs5jPUC6DJe4aD'
p69
aS'gAAAAABb1-jbxLZRczXlFoIyiZA9w1G40dcs_LGz8UsCHoCuzMDq67ieB0ro9J78Xstb6G1DS8jvc-4NEWedICj20NH3d3HYXMX-e86v_Fzp7zJR2v27o1JSpeqylMxTEWyZDd5I3e5M0QdwzqQGbk6hdqMat-64r90iSnwm9Y9nRi4xlQWfYqNtkNVhNHOVPQqO8KMqLAJ9O3ZcJGEqh-TxcfoED9Pbz1Jidoe9nAIaEeRH4shfiQbeYJEdEJ8Q7lvXdrgtpLrr'
p70
aS'gAAAAABb1-jbEcpzJ6klqOvtqXhXOTskuI7PbTdvq_4a04qur_1JfFM6rimTbktTd-7cSoTXSJJdJcSjMNnH4xqRB08sYmN-qmXgkuePNm7KhcNr8x4WNwoErhJXlYTFLuzOi4h-HlAud5PlTVpAYEOE1FFN2zwsefG9VSRc9OjldKMgrhglbfBMqSPB_Db164ZyjhNNuCERt-v1MubcqoGsZAp3dnPO2qS_tPqVoyK2u9wa40xPoad-vIOhM6SacW6xvmmPdPnY'
p71
aS'gAAAAABb1-jbh5tjCAw9W2TiWiQzHWbrwYCY2ZSy4ief8rwML7-Hr1H3_ClwubRJ7NAUu-_6i1LFYEiHrcOOJ_VSYhHB0U9wWOY7bxzHT6rxJ_mzQQ-KPVNTm3wpj-iv5x3xwjEqb04rh4AGTRyrHQpLLtuNR3pPcNhby3CjPsc4R3FbjUlAX_ZhYbN2gzBME7lMv_S0RKkJS3wZwPbOeJKKOGcQsoB8nJyxDYmjLP5aBOc_6sxebQ1Hn1FikT5Ro5-zrp6K22Cr'
p72
asbsI3
g1
(cgarbler_test
OutputGate
p73
g3
Ntp74
Rp75
(dp76
g30
(dp77
I0
I2
sI1
I4
ssg32
I3
sg33
(lp78
S'[0]'
p79
aS'[1]'
p80
asS'flag'
p81
I01
sg37
g5
sg44
Nsg38
(lp82
S'gAAAAABb1-jbVEi89QSc6mUwoJq-u7nYUGDExWbpLcsqnu_eshR-aEDLKRcqFAXNFup8POQsyLGF0nh4dCabFQgSYs6wRk0RUziZfNPKrXZ-oCoztTp5Y7NN_nMehnRCn-FGfsl0F6n9FiDt37PKafraXmpi4sIdeFlfEfM-8x36LpmAy455jjce05coz7H0_RNActFn5r0awnTtcw6T5LK3q9BRnpw8-g=='
p83
aS'gAAAAABb1-jbDGeOuM_x2vTrx8FviHM6VvrGxJod8f6-3H9aiDA5RQD_NVHwkPQVlvWiJ5QhqEqsCsPWE_DpO4BlH5_BFcKt_TMeuryizznJXxK0C1zg8B6TfAlF4qzfT5QKSpO3Iwhu-HzrNyKqHJENCHNuBYAPbBEnwBBJgRm8OZ8g9GUOdUtyRhAokmJlrojz0XSAcwmJ1prdlX3edHdYPyEG4HkabQ=='
p84
aS'gAAAAABb1-jb0P1TfXgHIpd9AreILaQ6IDdkgLAxyE5aj62EIatt-w77Mejy5SlzmnHjABNj8LjM3qPMik5ATCJ6-gJ9zFoT4y4lBJ5lV9-QZNNp78LgNt-VHRsdIH_eYA15FiS4Y1A4qPhAF1uI5hJJKZlQ0QY5st_X7CM2KpJtEHJQhROsfL1qCtLZz5cVhHqqOAdkn5mruSBZJRPE-dBkBmYGg918rQ=='
p85
aS'gAAAAABb1-jbxkuGCdQtw8bCuD2T2PdGK_D8Gds3SsMZpVkk1FqlqgtWYMAZwtT03H5M-OjBnlI-hiH6NgX1vN3z9qJ72_q9EwYyuuyn4ujqzrP9wa5a4u474ErAtQdp5aBxMw5McIR5hql3feCrgHXNsfzKDNieHMdqiCJzFVTC8iEczehCeZ4W4g14xhrpPRSi9ti5UAJfnyA0erlHFhxYJT2kU_XEMA=='
p86
asS'interg'
p87
(lp88
I3
aS'OR'
p89
a(lp90
I2
aI4
aa(lp91
I00
aI01
aasbssS'num_inputs'
p92
I5
sS'output_gate_ids'
p93
(lp94
I3
asbag1
(g2
g3
Ntp95
Rp96
(dp97
g7
(lp98
(dp99
I0
S'UzAKQkfJ30bdUwYxgksXUrLmdBoV-CDrN5VNb1zy77Y='
p100
sI1
S'uXmNiNtJoxVv4gxV8Sg8y_pE9x58UatjmVWwYUo6vms='
p101
sa(dp102
I0
S'5L2A-6nEb0U0Sbpa27LQGNyFqICiqhQtp3mv1BrqLmU='
p103
sI1
S'oBmIyKUNIL1XmwDwTF8qCfb3B9kps8DZuA1vilbUPnM='
p104
sa(dp105
I0
S'iNCy24h3Nzr_7EG-sPqcCo61xeUGw-9hvio7_eO_I-o='
p106
sI1
S'wjEcDnDK_V98DViQ-gXmoZL6SbGWBuBog-Kz-54qGiY='
p107
sa(dp108
I0
S'TIG24UrBu7Phlb31ZftSn3HE8QzCx0iDWuCC3DRXRPU='
p109
sI1
S'8KJQeJkWromNB6-TARx-oEliERpyT4bFjH3qVhVdGzI='
p110
sa(dp111
I0
S'tF6ZsrECmlR3uxwJ01LvcbGmgQ4ol9vnGiBcX8FwbbI='
p112
sI1
S'CxuY3tEHSoduV7vlflG3PJ6Y3V1v3F_Vm3cb0SLNc8c='
p113
sasg24
(dp114
I0
g1
(g26
g3
Ntp115
Rp116
(dp117
g30
(dp118
I0
I0
sI1
I1
ssg32
I0
sg33
(dp119
I0
S'ILvc_BEtw5Ze2P04qe5QPnvX-GVTyvI0dp2JuG6cyQc='
p120
sI1
S'joCd2JrXIBxVMIBDDPZy3vxOZKgkKAPt2jryfppj-k8='
p121
ssg37
g96
sg38
(lp122
S'gAAAAABb1-jbUGoaR-FzBrwyj9qPQFgT7KANTL0LQ8OdgaEHVSTsN55kYTpx1071sDjfnfLQXxg8ADPhZqMbomNpkdSDn060XPIHIUDDAVKva0A6kuUpDxNFcif6SguQHP054fS9a3sHRsDBymoRTXQICSs62J3c9QepGhjtQnB95Zf3LuDzqHxgI29lYXyjsCMcXlD1krMjf-efRddaXg8k7_3r5ewcmV2nhtIG00Kqq72fHa2n5n-jZm2SFw40znVdyScfEZub'
p123
aS'gAAAAABb1-jbieihDHBDi_kyeQCn5bAb5KVcas0O0JHj7Ti-4EfPWkeuWjWQHovWlajRHRYFd-x3HXY6I0FqYzBYS8BZCRrdMPiFAe3iYVCGGryC1G4kYsjOKMj1JP6uqZFe80mUX7FxMDFq5LLpJRTD0IleVQR5xnxe2dEr7zu161WT5THvt9AHYytG7aZ5p5aU0IkF_Sy7SQ-KQwsSu1wt1VrW73zWmroAJaPJGpfRZ4ZihRGaR1eiejRZw1M7wAkR5JO1IyJd'
p124
aS'gAAAAABb1-jb1MIhb1VRhhMbDOCbBFCQRP-77bzflSQwcJimhNWgIq0w98Az1eaknQHZnyjMGGTsPvEJnGA8GF_fJY_AFD7MPB3Qg2BFjpsL82MOTC8Nyyzfy1ap9mxupnDb1B0sVN0Ab83qpJohOOFRNZEYx2BFdHKZuqcMsPXRYhHDzoFP7lGoC2yy4ELgCecTM-hQW-r1F6uGbykwrYq7IAcSucWtEH5VT6QvUNgx1cGShSbJoSd2iCeAcY3QOB45i-0dUi78'
p125
aS'gAAAAABb1-jbO6HyLqYoyP-kWiae2H7QBB-RrlH5LUo5alonoIp6lH3bUAGtIaY4lCGBDzCmC5KD1tFcOkWxXkXXM8F0frJ_xYCnLOiOOWF6IXpJjnjISws__ImhEJ8NmY9x2se9kNb0AYrz95VoIklUKcA85xItPiYgFeK4cF0vSUXtQcsqVxgoUymZ5qj2BRrFmBjUH_gWlW7pslkI196roY2Ygv82GNbINL0ONzeBOJfNduMJbpCWwk_Qr_FMQFHfhcLUoJqW'
p126
asg44
NsbsI1
g1
(g45
g3
Ntp127
Rp128
(dp129
g30
(dp130
I0
I0
sI1
I2
ssg32
I1
sg44
Nsg50
(dp131
I0
I00
sI1
I01
ssg37
g96
sg33
(dp132
I0
S'VfaB92SUzIH50svtOfuj47wtm4PIPd3GDijJeTONUdI='
p133
sI1
S'D1kl_j9WdbUT04FvD_Bk_0XUTBUHLwD_4TTHGblO_6g='
p134
ssg38
(lp135
S'gAAAAABb1-jbilT1spCuddGrA3rWU5SGDRxW_eaLt7LOcKRQjOb_DJn7YBuEBAIU04KkgRnaIOzR-mnSQjHwczr6AumjtT_kgcbcPLvzLVutXAS7sjBi8ufWWlHcRzRxN-Rg80A91yE0BSyaL9DzwXIWO_q-ra1UbWBejZw79vKo1SNc8QXtmoVXOEsbNv6XuUTChXtC4-pnX1VfWes0FrRz9R8O9SxYuwbuCswm-wFADy32R4M2XBilWsYpC_QSyD-NBAD2Z5jN'
p136
aS'gAAAAABb1-jbUB2NVEw0ki-IfUD67569MTGhS1WMQGQS5muYs6Amx0Rgn5ZsA7D7M4yUhqBTdBQJqODV-2GUiqvFTaftVl-QE5Qzg25RaUQpRZGgX7sjQTjA0P5BE82GFJMIGKwyeJEM4k-v_CtOWfEIKhMsX3YJgO9md3j9WoLI6_mis-HfIbcgP7WtuibjA61HOlGfIMBMdDHocHrnQ1_0cEL8mo41cTNk9CvFC7IZhekfBR49SwJEzXz4bJqeSXgF2EgvTvjq'
p137
aS'gAAAAABb1-jb1XghQn1dW030MGC8_6JREs-l1c_uM4YWFVyVPNXLxE1L_ekZfUX088618SVSGRr_nrr389gAgrpxqVpxEbEC92x3bTlKdiAxaw2YLsW06TZoSDAh6i1sAb9oQZwYFNXPAORp-3cprHo_padyJrXwEhwkKyWnobAfpvJCZWNn7yoLz5oalqzyzxfijlrN8YxDhByGXYs-sqEOj0MZ_34sSPpG90Q978BkWtOL9Pv9oR0K6KIVy49EFaQ9vNotEPHN'
p138
aS'gAAAAABb1-jbIVKnpbVDz486K6xPUvdrbpM0CzmM7RDs5raMs8aFsRdrFd9jkZK7fp3-IkS1TmB9vIeTkSssb35idHs3Wi0sgSyK7nlkvwhbVqB2jfD062zxRQSsh4rfUltEUfHnhNweTNdd2-NfoMStAmZ07DIQBfSviru9noqYMN1oWxes-NXRDrobrMKwJiL85BbdiL7g-CftwAPQWDSZXW93VLMVc1MV0_qF_S2pmF904SE-R7EFutBD4HaeqMEiiiuDQAQB'
p139
asbsI2
g1
(g45
g3
Ntp140
Rp141
(dp142
g30
(dp143
I0
I1
sI1
I3
ssg32
I2
sg44
Nsg50
(dp144
I0
I00
sI1
I01
ssg37
g96
sg33
(dp145
I0
S'oecx6IGuxBYnzua1GZ9pfiuqbxHs8poeWbaw5v-w7v8='
p146
sI1
S'pMbWEHZ1d2rnE74CFYEKOWM0aMfd9CVeNNFWfbIgq7g='
p147
ssg38
(lp148
S'gAAAAABb1-jbSeOuetiTvCy7Kj9GG1VpOd58Tlo11ibuk4nMGgEYpx9HjkpNX61k1yf-gVtH_H8lVAilutBhJljKUoRkgoKkBFULhiNaMo5nsIC44qsISUKDzskRquISrWI3CEXcu3z-CyxnciBFg_6FW1oPslrrZeOiarkiF6GKTxWIY0LsSmqpWGgjRcWado0gSWOqFhaNIBZiiGgMFDvFNb5dVP_Gz1Sr9aJHJgN_V0IG1esZTAyWjrRQh7T4gdWbhUUkJuq2'
p149
aS'gAAAAABb1-jbA0LJ2J-g185TnZ3DOMjanpLrVuYEgZPw0WffUXsYFizfArqcI3NzkD-J-uuaFnLOctO1vhWlpVce5RNayDP6gIaZrxDsKiS8n8nlVaUQJMItG3YiLDDsW-ZueDLoR3pPXi17RiB7NgLnagzmrWVlTLKwsIUxry7LEmzrzNqTV458hnNkTCcv-WMFRNRb2CxYsi4L2K95T25WP6zFjLZh_1TJUcWm62Mj63GK5DpWCcDx3gzCgQGot5Y-yv_fBmIs'
p150
aS'gAAAAABb1-jb_Srv4AdDvCHTXnA-QVlQj32GsuhVbqLz8TcKWtcctL-XGkdreOksuubgwnxD_cRDFeBoSOMwVZfvpkOyOdnA5mSTRmw-dayulGOGdZXpS72cxG362PAB-etvLlJfKkePh1eKKj-IgaaGrV_H-04KoVPf7AEJtmIhovfbAE98vTVRmMZjALfZS4afYcMPNdIff18YWbgPhISiHajsWpJwt4CJKck4vzlOgtzOS3Lk94NLjxtGC0tZzqKIsYzdzxno'
p151
aS'gAAAAABb1-jb6olrj04wnN7_DO9zd2YQUoOEnGq3ysnXBuD2Aeuwx_D_oYt3jCaCSF6wDQGK5UCFrzarvmJEI5fF1zahUEA9g8E_b4rDGTbAUdqvtxLqJ0__2XPlJiUBxyzg7AID4XMADB-5vAk4E33a1QUHXkbZizU-2OHtZ9JBNdpUMtpnKp5qMD1MGPkh1iIMj02FtKYsEAI9kf2Ul4qCJ25_RURfdREGosmqahBaO7rundEHRFe-QXeP9aTocw_M_1J1gSsY'
p152
asbsI3
g1
(g73
g3
Ntp153
Rp154
(dp155
g30
(dp156
I0
I2
sI1
I4
ssg32
I3
sg33
(lp157
S'[0]'
p158
aS'[1]'
p159
asg81
I01
sg37
g96
sg44
Nsg38
(lp160
S'gAAAAABb1-jbJ9r-V4BSYtg0rqXnVuYWqNupJibSfMJyGE_fzAKEk7S-SOjvLByoWIR-4cYa-ZqmxkV7IV6zNqqeT9HvAShyoEthHO5cyoPOsQpZwYh7_0Q2sD5h9AtWTV1_RnsWz76EJTtkuvZSSpPN8OwHgkxr1qsrN_SNmmDzl1t-uPeAzUMi8F_FT2huKNy_cili2Rxhpfe6501Jz450-PrxJOvHEQ=='
p161
aS'gAAAAABb1-jb_0F-A60TLQSiGNU5H5w5yjwoMrAHVdgfJJnQW_hg56DpXFswdWmTS-Rf0n9AvypYGdx8jCK6PqYnan05dCiFN7r6ymPvyozH8cJvwS5lSMiP1fTaHmOX7s9S1aQLM9rEAJaTMuhGlIP5sOgpT4MaRIt5PABZ9QJ0BY5xx0JGJPC5gVugHK_iGcPzdvR1MM4OlEzSxPY6Z6kO3Uz75c-msQ=='
p162
aS'gAAAAABb1-jb6fvvS2XrIMQ_phapnRfUzRrV9Cv46oJ_CE7Lepf22fn2bN44zQCqYhzYIvGTkW5cGTWMz-O6Rt9wXndSj4e5NnJQt4_ulkXKMBoXdIDHWJ8DbHkEZfsKVFm1PlBQGL5Sv7ig1_u085hBzCddXEk14GaRbDLCilU-KxFuX1Q3lq_XnVhEh8TWU_jcZOQmubPLbMIPBY3_sfxsdW2K2dK_4Q=='
p163
aS'gAAAAABb1-jbdN3X4ZtRpAgLaOtb7lwjfUtvfbZfS2oRaszMo3TSSmk0lHnhZROdPUoZoISPe_0gU-sJr6_XU48EuhdkUBtp4HH_7LnEYn_CASGK2aE9WuVtYdVBTDqsztO_Y6GlObJygqnIdhzttJdG3TPpyCxQbU52FcAB1jE6ie5P2HKTz5DtCrDYHah962rkRy3Fyc6BXxm5df_wpXYjPd1jhpcbzg=='
p164
asg87
g88
sbssg92
I5
sg93
(lp165
I3
asbag1
(g2
g3
Ntp166
Rp167
(dp168
g7
(lp169
(dp170
I0
S'7A6Bl8Oxf_qtvRmvXoERxMNUGOGiqkAhXwIU8bfq0pQ='
p171
sI1
S'1AODw64FmBrKZJ4lfczm2e0m4OzjW81PXARqCpuOAYQ='
p172
sa(dp173
I0
S'iIW0zmel5g0HMULoevb2Lhi1QFZoh5yJ3ZpOzKm1Ats='
p174
sI1
S'LFuGOpONK0ZjNKsNk_CfnqVArly_lCwZsHFyiDVkxA0='
p175
sa(dp176
I0
S'tz_FTgSPrnr_BMoxw2mjNi_Y8M8tPl7eKEs9y4OtIrg='
p177
sI1
S'3ZaEEwRckm-G31Qi4vDyCXxnyQ1U9Xlwin2O8-pQiHE='
p178
sa(dp179
I0
S'78N-Kib-gzsIUZYqZZEsT3DF2pfygyaBmWXehi3FIvM='
p180
sI1
S'4AU8187rfm2lzF5CWLIqMshucwOc0lap_yKreBE16Vw='
p181
sa(dp182
I0
S'yZROF13mOsrVoe6538lJ20EpLiusKi-Qh_HRZZ4nUC0='
p183
sI1
S'SKCQtpTyT9YHuVLuXLJElvGFRX6EuO5RXjqeCOEdjkc='
p184
sasg24
(dp185
I0
g1
(g26
g3
Ntp186
Rp187
(dp188
g30
(dp189
I0
I0
sI1
I1
ssg32
I0
sg33
(dp190
I0
S'3f-5fCQmRrEVaXLVP-o1QvEAbou8NCMovCUStWmOgOo='
p191
sI1
S'2VxGZj4WIEQyHgaAOu15niXEMEUd-IFULAYT-seT0a0='
p192
ssg37
g167
sg38
(lp193
S'gAAAAABb1-jbVizDbkMMq3ladHtUS3OGZ3mfVKRQKlDt3sH4Omhy9TlgS8vIVXsZp7gkvZq4Go_kb8nBqiysn-qwGFamM2RIp0ujl4BnH2XNHK7_Un2DSKPYQOQGDkmiY5UGDWH0wXRCm1l2WUeEsJjUNBLVzH0Gb37BMGcrdVyj-SKgIiXZroG6rA7Hskv0e67pgtcxqEnqa02pS7cKBaJKtS30EEMLRbiI2TczP44z_7w7_waQ1RbcTH2iY2SzDqnWg6KLNU9G'
p194
aS'gAAAAABb1-jb3GnnXmTrwG_GsRPd1l1UB9c_YdxKpBfn1JxvOL8GRAhBggzyGOtTtdldSCaq0t08PK4DyQo-qtknozWW9FClZpg5hANyhZBshkECj6U6-Wev6rSE0PaG3qxLOtddbrPs3aZY2VK67ZatKAvGbNa5UxHKJgK1_DnlCdgJtOYOarig6pjtriJ_I1xBJs7kIFNliqMoEbGkC90jFFnASawTVSFzb-Gjft9C3MZv_51Y6ZMJs4zG7zSPIrvHHEn-rcMj'
p195
aS'gAAAAABb1-jbvdaKOjF4lt1cbfw7wnGTdDScHrgrgE_Co9MuyvLVp1gx33IGqRcUjBflmtWwG_PJZxWtvj8BVKbG8pdSHOu1OlbDMGMKEvw696VdV73NQv5u1QFA3huFSc7v2361QJ66RlPe5CndxUAwFun2Ted_jIZAcg5y2yFcPBJwelwxuCkwMUJUZwO5qtyamxGYkOUAx8zfUeAy94pI_pWKdsd0rq9U0gEXKE8l133T67gNB3l0E3Ukp78_GDvxag9t0urf'
p196
aS'gAAAAABb1-jbffVl49ScozIaITYPOB0zdEKoJQHuS8eNdlG4gAR7HdmiMtXzUS037v-WcjByWHLQklqczFc3gS_plXTLBylFQaWr-r2OevE3-VlL0T0OLh8IQpzdDb50PAYFCrxo-IJM8-pqjfNylEcjNbTZ5xTywzW524YXg8Gu9IwJTPkeQkIYd2MZL-TxcfnT13WkmiJjZ1Aw3pPPKkX8SlPw_rzaGK1vnAJ52werL6EjydDSbA33wi-lky31q3RC4KI9uIWJ'
p197
asg44
NsbsI1
g1
(g45
g3
Ntp198
Rp199
(dp200
g30
(dp201
I0
I0
sI1
I2
ssg32
I1
sg44
Nsg50
(dp202
I0
I00
sI1
I01
ssg37
g167
sg33
(dp203
I0
S'GnKNOdb6dgDzQhlRnIwOfM4Uy2SIf3WdLSW4kbKuF7I='
p204
sI1
S'aHdoAr-3NjaumNq98iWnoFoqvRz4IxT1SvIRmQt8Q9Q='
p205
ssg38
(lp206
S'gAAAAABb1-jbOf-R8D_KH86OslCMtcfq0r2hoGnCdiDFB5pOvxKMU_zxWqGr61xNOotyhcP6smSFt88OPXLVxiJ-YRfZcGJYaSonNlGRvsnuT5bmj9iEc1mfDX7c6qoSSNRg74HdGQ_6Gb7dU5a1JIWf1bp4pMoYZmhu9zO5XjiIGN-znDx3hhrKJUhXG91YFe8mxEfDHyZmXmDX2NHpbhvbzLU9gqV_xSq-0q8s9CRHIHQ5t_NEvIl657bLGWNG3gkrmRI5BPz_'
p207
aS'gAAAAABb1-jb8TY7xDzS0lAqPxyiq4Ba7fGWFaxVeeG2I44vT7i0P3uMRGFwKltA0Ui-1ZfXiXDZ_IvnExak17ofZjRJeSgHcEU92_mwd2PGaApO8U5DyNQbGFsB19FyBIuCwjLRPi3m27PDM3GKpT8HcytdQyWCiZJxYJ5iZs6w1IoX2i7co5Nnai4h44Hh6I3SSGMkL13W_arEVunOGXVMwQr71kPYisJerIGm35KRIsUw2q7ZJAJn6GiZUqaruB997WQLvqXg'
p208
aS'gAAAAABb1-jbjvPqaeWFSHvMb9qBZzGjMEiJjfHwYS8XL0_bgS5vxi-rpnreMyA3_8yKedUYc9ZfxPO2wnNr4Of2Pyj_PRa7fF-0dsZd5z1Q7rTfOakf3w_LFU4uVb2coDxaXkz9CTdvBV9LHWjGvh3XyUWJAKMM1pTRWNFDRUzQp7xsm1cpf0kboQ3j5NWl9Ay0D-5RgfS69ROKFTWtARQme4v7W9Av5E8MExDBBELeHxPAlzOUAD7pymq1mgQ7rMlIPz5a_sIG'
p209
aS'gAAAAABb1-jbOVn9Cej11auB3NQA3jMR4yE4SKEUdlz1DelP2kqw0xYWxwW9XJzin5q8s_0GoBw7VMFWmPUUNvnQ_7TLY7FGeNNWJdXe_DLFfxoxwehyvavfn0tRUdaAO46GArgcBcU9fPEZhHRHbdJYZncFrqqa5EOUeK1rLwfQaEncubXfSV9J7-3u900w5axxtDjjWdadrMGDDU34zWLxwFLSqiKVF9NM3RQnPJj2icNdqLLsYgNxJxjo0943_AOnRc1nbaTZ'
p210
asbsI2
g1
(g45
g3
Ntp211
Rp212
(dp213
g30
(dp214
I0
I1
sI1
I3
ssg32
I2
sg44
Nsg50
(dp215
I0
I00
sI1
I01
ssg37
g167
sg33
(dp216
I0
S'cnCnSc5eLckEQiAcldSnDZGN5RD_SYN-bdD2NVXFdO8='
p217
sI1
S'W_aoarhVIRb-ZSvU0XiAdpPHo0AjUxQNfsUtcaujrX0='
p218
ssg38
(lp219
S'gAAAAABb1-jb9RYKkrkbCAjDtrbBvf3JyIBqZbT68JAdUHn3Og1wcdEdtFpyV_xxm-aJEmxFeZzFgPnDQjHvec8-9nBji6sRM_nVY2LqRO9jX9lRwltGlZ-gaUosY5RTbXlaBCXj6hx3yU6z2k01L_ahih0aTWRqXabUcdgvzUyXz2Fng7De-IJyrXo_15Rkp9aNE8jjMcFl7IaZlSUDPOQmEzq_LAGl-T6H1iWTbmDLyMSoayVVprYqahpcatAvUDh62k_PbQKh'
p220
aS'gAAAAABb1-jb3y0c9HfhIoNzQAGMt9aYgJG4VJAAYi_S4orTH4lauOI3ftIwzL3QC9eGSopgd06Ic1lFYetRElbQ9qM1OGqx-9tVtOVqkMfAiEtEXdyGdOAE8cFJdKz3uITF1qI-UgYWCirZgNIosnMrPFiBsp-J3ZcjTLI3moGwcN7Cr3IPsdjOgallNJkWLq8wJtDoUs7sM9P4DEqfCjbwitGDEFSWvMiyqgePehne4giTU7mdzPEtSOTCStWu72dzDo7cIgKZ'
p221
aS'gAAAAABb1-jbQFux4HiR2cv6k3IO5W9bu90zkdgnxuWJw-d7E36X7ZglMDE-5MkDSuAKrUZkjqJ_UN8mw3XcrvpMMUJz8DGiRkV_5jJELzHmHKAnNmpuvTyIhmo2lQg4KjiEF34JtuzS9i1n9OZ86OyoxmXxrWW-jzwhRSsh6x63NnfvSav0EmX3Sy-DoYyuxVLZTjzpBC120Obz3oBtVUx7usRuslOD324S83xL-DDpIt-GKqWWQKwoH_-JVqa8q_5Tny1RR-80'
p222
aS'gAAAAABb1-jb9tvE0op_HNSLDgapJhy0lCTYNQpL-ZNw236Ehi0KZxDxDwpSbN1n8rZbyx3AhuLxxAcrVFoQeTEpBCutvbddA--Vi_VOQQshVkPw7hOeozoD9Z5Jv6eI0_0hQvhmyXWkh8RDXGi63cVdc4m8I2X2Q0-311e9wLQZ-qslqwSPtkzUNBoFmiEH59aXkxiPshf_-5Qs_l8EuhDYY2nG7BmanYo_vJ2o-4vZqnr9eGma2bniY5aVonMw0g5ACLSV-R4N'
p223
asbsI3
g1
(g73
g3
Ntp224
Rp225
(dp226
g30
(dp227
I0
I2
sI1
I4
ssg32
I3
sg33
(lp228
S'[0]'
p229
aS'[1]'
p230
asg81
I01
sg37
g167
sg44
Nsg38
(lp231
S'gAAAAABb1-jbsXjOwRcU2EEPKp__KE1vmEXM2dTvlvxVRqCHXUgEegxYfLbD8hl4juYQFSPLOM402xssEOHLT8bKSNK3D8Qrv5ksWM19FZ9VsGA-wKeEafkTNHjubfWF7j62btdLGCwteowXrVarUXSxq5xSnQg_T2jlM2RFf4f-3DVNMNh3dKCCXUQwBuwHp-pSBNf-1NbZslroK82KcZ3iKYIOALiIPA=='
p232
aS'gAAAAABb1-jbaMqlGzUsHUjtLJn3QOonvcI-fp1JJ48lKpYqjsMx3kGeZDRSlfqHkAxHqH6Yo0VCJoC0YrGwLTshAL1j9V_X73h4otVq-5DoBj8wWq5PtRY-LM-ap_ZDyC-oeYkLUfgsI_tDKIhtWZPLb42abJClLnp3iczkXRjtbXDxLPW-XCNmATJ9i4OhIN2Mo_vxHgwIE8_-Oj-AYI1Po5UdeRzQSA=='
p233
aS'gAAAAABb1-jbI4sBdxPf40tsfEHRz_2ubYE6ijiuayTVC0PhmAU9484nKTL25pgBNndRhZB1tBV6yAJPSBC4EJgLdOtOvmrbAw8Yruiw5R8RjmAV1WaDSeSLXepXwXEsrlbscpPbaX2D8t8qc3Yc6Eskklequ77fcI6QetnS3G1ejeZ0-9tOoIHVDpcBP4hNdm88Au1Oly2QDYkC8QHWCx_HKSy_RsGDeA=='
p234
aS'gAAAAABb1-jbJcXz5pLnKVw2hFYnWEsMTgjIO16XMDhFOCNIRsxqPzfHJ3LbBreMqTkuNP0wwWTEmj65Jsugx6YI1A1Sck2f1DSCZBEdvA-4hf0mK3Z8JTwQkXRtkP0e_VmzCTwPwrVgBeUNs4NaspnZnP3tCthovySU_SpqvfnHDQ2V-eoO-mkZbJq6t6Irh_F2YufOY11ghDijgnj38Rjb-1Ztgt5SjA=='
p235
asg87
g88
sbssg92
I5
sg93
(lp236
I3
asbag1
(g2
g3
Ntp237
Rp238
(dp239
g7
(lp240
(dp241
I0
S'cqJaIe5ELdkehvEHSsAuyRJ6nTsZ2QH-tEQgSkhaxQc='
p242
sI1
S'IO_pAEGpEv8Bb6SYvRH7t_OApsUWeEik7q6Fd5JtAio='
p243
sa(dp244
I0
S'ZcE1Ni6XwIVWog-N1XSjpQbOa4vXwdHeNg9TrNRM0jk='
p245
sI1
S'JVp4MulFcXkoYeGdY8O5E4LYWtMKfR6uLQVBfOBFw5c='
p246
sa(dp247
I0
S'wFKALJVQlFPheczPbBhSp9LhEvD5XlwqW2_RRXXDqR8='
p248
sI1
S'E8stSu2Sunq3t1jiwW_YI9ZQPGQ2Asmbm4Tp2emH-Wo='
p249
sa(dp250
I0
S'bsN-WeBIwMk6ovK4-Gw1tPcgFXAIZ9WCTFlVgN-e8UU='
p251
sI1
S'6qoVPIJNHbcWulYBluDpTwqjmOLor_hcV37ZArzRB_8='
p252
sa(dp253
I0
S'-rwxOG6W7wopB87Cpe4Nuea1f6kvDSK9KQjMjozmuqU='
p254
sI1
S'N-ZwuX0FBeHlsIaAqg2Ynk2rEIC2zD-Uh5X3lYK3V50='
p255
sasg24
(dp256
I0
g1
(g26
g3
Ntp257
Rp258
(dp259
g30
(dp260
I0
I0
sI1
I1
ssg32
I0
sg33
(dp261
I0
S'WPl6dNb6ZFjH8BPFghlqObImMNUCHZnbf1q4BCtRclQ='
p262
sI1
S'qDQJV18nbf2icSUmVzKf99jXHfzkWDsOaaK5iBzj8Rc='
p263
ssg37
g238
sg38
(lp264
S'gAAAAABb1-jbru7hmWHCUMAoCGBRsLaiYE5660H61E7hq0vMBLsKJhcJsw8zpVwIAZgaEXBrlsJgvAJ22zzcgss7dGpVVfiN2HPFGVYQqLbkeSQgrc5-GGoaodp0WgdGLGhRipVymbm4kb56GwosOEmiEZWBT441IAtkmV7uOvtkgHkLmqzv71fhLjg7olQVYFY3k24_bOgYpigVb5Mc0a4O6ubZxsLpT6vSXI2W61ok1dr_lxxPONRrOGZhXin4UnJihWYitUVi'
p265
aS'gAAAAABb1-jbBKiaiBaMoeTvbs9Gm9xRV2ui9U2f672kFpZrg3KFHjEPrKEL6pdOnPYaRRY1ENCTV1YvD154l7NEJppa7iZk95lHOme4buK10bfcUVQe4OXTeySiG7qR_po2OwZeshJxcAM67kV4m4lMcPhoIFv_fv0miG6ysHenJX4uT2PN75GNDSL4jlCntGm3HCv1GAirk_eXaMIWKUsmEgbgIJXM2hQkN5Vdj6DdqAAmh6Ujt5s39aVrIBYDiPndhUKTzRax'
p266
aS'gAAAAABb1-jb_ZqgHos_tbE-Xvx8wrdgrWFrbgyrWpoztP47Jl6FiyfSvyPnDudaSe53IZy7Fl9UUIiyHQ9NfTvp1uog8Szfe3d2W_OgZLQCQ1DJLhfHxStIF0zd25DoMThjBnnDfFudp0ONi4HVlgLiyFnH36YlJo_Bn1Omby_DOystq6lNpycmifiemnQuScpyyvPfivxS6y6aC04WrIbLrfY9R7OLS8UyUVoU3k8Niyk5oZHKszjnTrOE5cda9ZD11veKS4xz'
p267
aS'gAAAAABb1-jbXJWoBHVJ0SLNTsQ7pNcJpv10DPQUxXCROmvzng6bVADpaucDAbSqQiKyYjKna-Aaq2tkdmnpLtR-ngpJu5MDAZbo9EY42h1bZGojybo_i5QxPc2hmXQg4Y8H8xkLw0Hb_b1h0fXjHqGyuIRzbqN8aJeL7R4J7Mqy-rVR8dEAKqv_NCmXINM7vQWQOAPXVyLg_vYXEIK2rV6o7U25rYLZlFG1KMcRG5r_2bDI0Z7r2VFfohG6lAG---Gwh7w43xGN'
p268
asg44
NsbsI1
g1
(g45
g3
Ntp269
Rp270
(dp271
g30
(dp272
I0
I0
sI1
I2
ssg32
I1
sg44
Nsg50
(dp273
I0
I00
sI1
I01
ssg37
g238
sg33
(dp274
I0
S'LvhDd6k63Z5h8jtohSdEqik1zimQduQHjRChEWtqaO0='
p275
sI1
S'vqIr_l2xZjb53KTnaJ0ngP2vztL2bz0uaoSG9J4V-0w='
p276
ssg38
(lp277
S'gAAAAABb1-jbvz7dscLo3zKoEb0Jathqq83Ag84RsCABKha6fEzsiPyjJ7z8YwawwjuMcOUSH6-n7Q8SWI_QA6T1QVrgNaWwYvi_2QRRWX13FNWnYAeS0d38PVZQn5B8InZ5KqEsA_PP4McjehXRLza84wirGrfoH1JM5Xb-EPAG6YjRa_p1tiTTJLa2IGbKQrBkbVjWxcs1xTo5EsJwLeXkNjjjpVQU_DxD0JOMQ7I-d5pMgq_5JZLTEN6U4j7-sTIp_0qcsPyO'
p278
aS'gAAAAABb1-jbpPYK-RDSxtUGF-HkLaNYKAVkDCiFFc5nAL8te1swIC5V_zpYOe7kOo0JPq7dNnvfSa0-Maa1C_6SXU59t_wJccYKZAREQ1EjpB4Gt8dA6iY_hgdpxC0H_op_HDu_t5vXwiy5-cLGJsc1LF3UwRn4PXrg6DYbVJC4btyII644UnHtQ1SN_2POlmbBHteQjkf68ywhifvmuDATQLrCjHhpihhCrYqGtSCPZEvqC4U5cktEHiYMSq7PFoqPR-Jsrfgn'
p279
aS'gAAAAABb1-jb0JXevoKsvKiItFvWaZ-n7AiThh-6mJSdYk3f8KEyew_MyywUsTTRD7vPe8v_l5XBDRthM2uounxcire4QztIfVFZnxLs0Qxq97Kxuro4lthA5vx7hwO5Mq2i8Q2q7JtAMwrp7Ze8iVLOKjuOUicpIvUd1ze2yppnaCN6vG6IuySgOQGOZ8FaSNJOyH4nn3AYC5jpRRzHN8QnfBevXo15QgKGawsOJX88w1Vv4U4UC0WDeJ4QZRAB6lBBUmH5_kh1'
p280
aS'gAAAAABb1-jb-MQ2f4tOiPinb-NLW52IOrxajc_mmXdLTD90vIPjg-tE2W3ejIGS3keeiOglbAj2zaTIGWy8mJdQCJolb5jm9_7158pPaKsNON0LK_BMqr2WOb_c6uelnd_RD_h7o1ZYv7kaezSsuzEruACNq7M5VtyZjqN4EDNjinttLUU6khF08S-_Vblg9619rJKXSJdEGXzwkgpU_Uy9iMEE4wYLWvjRp3SotqRNuN9uL-391q1s9FKkKjw4UNym0unqVzsl'
p281
asbsI2
g1
(g45
g3
Ntp282
Rp283
(dp284
g30
(dp285
I0
I1
sI1
I3
ssg32
I2
sg44
Nsg50
(dp286
I0
I00
sI1
I01
ssg37
g238
sg33
(dp287
I0
S'HlezjlT5SRBD81agBh0fYEbkePXldihotkKA9wu4ApY='
p288
sI1
S'kWHrIGIHo5DNCVCX2F5Ay_yiAa-NJZyjw5K_48adWVg='
p289
ssg38
(lp290
S'gAAAAABb1-jbt_4zgiSStlWoYR_d1owM8huWWQ7QW5eWt-6k9bYHBaGkCO9r-J75JWMiipsoJdb-x7urZuLS32J8gqpubfWmQ9QnC1GAfv0gD2PJx2HFbguY8jJtnMOzLYez8OYx9pgzZVOHZnMOdMfLgrQ_GJXUcQwPulQunwSB6Sz9dm4sOmVcoKn-FbExLvf2L_5ncDcdv27vE6xEVuqMMfczKRmheN6u3z8vYTYZKF6qoiHpGVsh-b1EMNa6OrkvsskfF3SX'
p291
aS'gAAAAABb1-jbdRoSdQEsw-tuGYvg6HlKLKGTdkBNxVLs3v1kWzE4jjNXlJvawt2UBCXFFWKWspOU7J5E9I01rMOktOgpomLzjhUM94eG5Coj6aRFPtTXq031-TrGJ0XTRORHW3LKPKIOj1Tz4EH9a1pNhKRaVSda9BWZnH3d5UZVjzgOeWcCEizapvd_6_GFBCtI8B-T5cR3WAiIdf27cUh1UHTxEviKDWpkcOY8rftIkHAJ-FavO8tlJzvnqZmbe4t2pIBlkbar'
p292
aS'gAAAAABb1-jb77j_P_g25TN4ktHoUf4Q3RFpdzGNGMUzDBjLrFFsLY7rf9Fej0C4EIRPL92SerBbNrqgyYvlAvDD-DDnB_NvCNP40r3uKrYztNElLgyvhIMarsU2isDMvB6_-qrAdpKnCwNpoZUrGhsCUv4huu1d4uQ8jng40ZQHSugkdStDOhtq21jreepgHkgOz5Z-E3cLttbvnGr6wsV-s4b_4ag_kl8mEaYRBF8J_4nWlQgMbPJoq2983B-flsDokiINLRzB'
p293
aS'gAAAAABb1-jbuJLXd2C05wCUTKr2olgM6HAE-_P0SVXFA4_Z5Xg0rrSmSQ5efmGnPfwxtQeYfKhxPBjVkw3YWgH_HEpDOEjgiZw_1LelA0jS3Up4R1p34efpRFcRgR8XRXEsHJ_XUtMuhJ5NyTyhNCu16wugpNah2MvQOOo5FQuXkJ6-KF1Qkvw9PboZ3MAoVAeXG0w1hEawaNkpuMtbS41S4-EcDU1WVjLwl_U-UFaGxoyHC5jTG-DxIXkGqibGy9H0z4WLR9_1'
p294
asbsI3
g1
(g73
g3
Ntp295
Rp296
(dp297
g30
(dp298
I0
I2
sI1
I4
ssg32
I3
sg33
(lp299
S'[0]'
p300
aS'[1]'
p301
asg81
I01
sg37
g238
sg44
Nsg38
(lp302
S'gAAAAABb1-jbVaA9ulOCMY7-ne0vQSAaLzBJM4lnT8eMFxUp78FPlZlMvCLHD7ZK7sw8hCCm1dwB9deOZBKcfqsyE1j1Z09HLEPJYVpbp8nXHUOh4_-NoabDWpnllPQZAUdYGaVk87Qls1Nbv_JmmKCbIi3GQwKUnV1xRq9k1RhyJpzVU3O3Vvy1RBjiwvWFtOtX34sqm-kWaEmiKm9OjZZc6VoLNXdHOg=='
p303
aS'gAAAAABb1-jbVMppbxhAlDi9JOF6TgjvP2r_HgJTVE6_GnbM4Aug4gQ6iWvSYzsFkjbDVvEryNhmJg6YHUtZ0RfI1xkvTDW1lG6YD0O18nqnU15fal7-hSLbevCNPNnc57yticrBLW-EixlvdkBrudVkKYMC_5uJH4Mdybnz8JXzpB9w4e648e0q3a4CDUy47GTgBXcw4wM8wpA_N4jpTXs6uXSohXIfnw=='
p304
aS'gAAAAABb1-jbGmQKHLi1Nzc4ODI3L55YLTUtVwdo8unvPVc8rc0e7RH_MfN2yUPwG42VvvFmKl_SXRHpukt4uq0Dc7f0IAI5FobvOC18oBo2oWkBPTh4cLz1T3HgJKGjO3Ag6Y-BgsOdj4V8psHmaphiNBU1Qy15_nvswC06sT-DA8ZRXfvAkqM-xU6qjn4a7cszibcgiwmm9aKSF9-qOp2rcmpJ8RJjUg=='
p305
aS'gAAAAABb1-jbmglL5EjhmtYCL3PHgC_XbmiNQOqyhRwhtDKkk6qfdGQQkOlzmBtWwE6azC1ZaPn5a_XVK3Uucrz0LEeB8_nMfDZQ6rEYW3OJCXxQ2oiWswgKtE6du1LL_iG1szx_2hd_fooE2nb47anrvKeEm-E2JNVii5IDOABPcSQ0Fg90Ip6JEk59UF-FyrMJ8k9XhZ88LdQiZL3bT5rXMS7WFy6nKg=='
p306
asg87
g88
sbssg92
I5
sg93
(lp307
I3
asbag1
(g2
g3
Ntp308
Rp309
(dp310
g7
(lp311
(dp312
I0
S'AZvaPsjm_U6UnuTKefxBHaxdpa_W2YQuvne_Kbr_wGM='
p313
sI1
S'T1ADfmp4LeAOksQtdscp2Wu_g18HaCc8L6w7v_Qz7OM='
p314
sa(dp315
I0
S'4X4gQDVyWdRY-2ENJEWU7uUHzW8TBlIAx0FIIpIq5go='
p316
sI1
S'F_rdH5jHqPFpUzqA3yLRo_pSKF4OCX7Hk2Y7eAlE6jQ='
p317
sa(dp318
I0
S'NUMNrX8HyQDuSWAcHeLKHZm8UpyQqSAcAac6-TnzCGI='
p319
sI1
S'iWWQeymJAPGzqXGp44JRFllDc2pCrXp4Lj6Xs4lto5w='
p320
sa(dp321
I0
S'PN_RFzwzIWLp8vv0v7fDZ-TMfbthb50Af-idWKIcga8='
p322
sI1
S'b-gS3C43sZn6GQv7aVad___BANlA85LBGTMx26hamvk='
p323
sa(dp324
I0
S'-KpgHZ4_eZg7-HnYNRwfBGlgFmWcOBO9qGmJ2G6kvYw='
p325
sI1
S're2ouycjQ55k3ymKgfo9BwHenZSvY2NzNhpVr64kEFs='
p326
sasg24
(dp327
I0
g1
(g26
g3
Ntp328
Rp329
(dp330
g30
(dp331
I0
I0
sI1
I1
ssg32
I0
sg33
(dp332
I0
S'Df0PmfcNeOS69ZxuEuAW8k-a0HRXLSMi0T0o787yTRA='
p333
sI1
S'r6VIWAYrYlt-y7I9rLHSgV8tU0L0Bj4ePs9LTvkpI1I='
p334
ssg37
g309
sg38
(lp335
S'gAAAAABb1-jbDdhLukAcCMrmD8S1YqOv5ckPYm_bS-_Q7gZk0f6LmGKDaD4aIxBYPahC1vaCSiA_eEpfpOcITch4fa0nTwMCej7lG7iu22C22P8dgDx4Kh4ayv6d9leAvwhe5OIFzQ32IhgKucyLOckQUQQVkjTlFTb7iyxcfpNQe_070zJbQ-RGK12B-gW7wDn63Tun53wtMpltVDjX6G5k44EQwqlz0ylc_iHvNlBz4RQ2rnKLSygGChj0sChB3jJdPHxJYOYo'
p336
aS'gAAAAABb1-jbzKzG9wfVcAuNTt5dTGd0xhvvC2K9OtoMlwq4OREQ9rhy8dfjpcyP6LzAQhWOgRS3Y965vMkfpSeR2BzpdxgyF3dIwMmpiR0fztMv9l9D95So8PYwkNtEyaMzgGfsD8j3sTrRO0hKtLhBO75TfP3W3zPTC4yrQUfYNNcURC-5M1EJjCRrJynGs5FGtbq-sI2zHFsBssLrNDNYYw2o5EZUOboLuNQCAZhBQxOiTq1Dn5myHMZiUMaOD9rGVsZje3TG'
p337
aS'gAAAAABb1-jbjrJabmQqjlpr6KySBDDBb3usPDfzg4sx9rf50lueC86XGu0lZe0iitdaOlX3CMXyUVqWlWNxq2BVXamNkPWseKp3FoUDWmzTTXi6aJA5qbcPRJ9dHwn-ufnJefuNPmY-UcySUDHOr01vNRhXUJ4j6VIMfLCDDEhqZDq9dqeOjiOlpwja6fpwskbnAq_dGHEibZ_QIZ3RqAnKGpLYNngz-229zvv99feKGN49GozIvWsw_8WZPEqjnwdrJFQ6VuwQ'
p338
aS'gAAAAABb1-jbpS-C3O7oY5ezVTbYS_n_NVTy-eS4gz6JhL7qEf2UMj5eVIU05N44oKAAmjYFmxdZzR6ZzccOq8yA0WzycPe_3hV5SZVlhvWznc_a2vNQyVG2IM9T0p2rEI6j7rggT3SCvmDpitEYUCeA4HDDKPEFB4Jc9F-oqR9lJXrUMNDTw5RQ2bToOaw_JuIfxVsSMo_6y0w97GjCtJXam4yseoY23W6gGOkupWp5BPOXN2V99N1FxRcM60bGBRku_ZfevWm_'
p339
asg44
NsbsI1
g1
(g45
g3
Ntp340
Rp341
(dp342
g30
(dp343
I0
I0
sI1
I2
ssg32
I1
sg44
Nsg50
(dp344
I0
I00
sI1
I01
ssg37
g309
sg33
(dp345
I0
S'7m0f-PrTl78FeEo3pVSB9HEVr6jnivnBuIkvp3d-Cqw='
p346
sI1
S'pwwOZdh7L9MKu3zgfCtBS6oLyBFFUrz75LHkHSoZd7c='
p347
ssg38
(lp348
S'gAAAAABb1-jbcqV0xUnVH3DCwKQiqd9DmO5ewxi37k7G3_5FKL7-F8a3XoNoyOewEV8ImEvKPTQal7NepsXyCVHkxso3dhNWi1lEgX38Jk-Qmw3jmiI2oI1ZqgwjtMyeotN3p2AprwPVhjblOGHMpxy3OLUwMYlRaOCwmtp4mtxrSQCdarEnWx9npuXzg0xZCZejy99-NFlNNVR2F-14wyHyvfCrrjKO9qUYO3pmmqzM_LxXuvxoRaWhR5M5mT-v6A6L57zw7W5u'
p349
aS'gAAAAABb1-jbQTgQzHlUhzyom_ViwLP55t_GF9vHbhyiLCFOp3yrIzrD3reiFsoidvmZP_8tt5UWS6M93Zia7sL2_RyUfczNFQp1vaaYT4cLWR6RpL77ToIHByQTtyruieZbV8eYKxm-q8QxQqZDRYbY8F99_g05XY_Gu2M6UikEai_nfUuiVIBqvW8RZGIHdxSGY3SBZ6es1QIFD4OiXqKBEs5vUMYi51un8b9jc4maCsStlZIZ4bGKGNVsIynEkzz9JkSdJ1iS'
p350
aS'gAAAAABb1-jbnN6FwJ_MYHDRK-zP3BNMyWRgt9V9nRp-W_-OmqebZ7fsqLvOZUBtqeK4BmMc7SvAV8zm1LDtOiqRUY5Bj7ydkhLt-VCugchGyQJDe49SWAsU5xjoZnlkIR8MPXlwEn7-yH_Y2OqhyKqSlk8llGXIivcWvZg36zdR7_-LFJc-XzzYHTrIq8l0_BvbevVUrgxLKx44A6UZ-JHterjJHVJ1YXS9ZJfmoStpAwDM6QpawbhIvBrqajZUnOHV09-TsQEn'
p351
aS'gAAAAABb1-jbxmmV0_Px_4Os0nyFlgEJIzP3IHsl9N9ufqTPggJMT2qu6GYjZ4mtcS7S4L-9apGIC7JiP_5bddihvFX4V-p02By090N6o4gMz2p_-EbZ1Ws1AX3ZeDJiVT7VQENDKMDXa04BsoPh8VUrwPw3QNDYXJMZoJAk9FxxcaGSI08Umw0nSgltsjzTm87z8yovvdis-yAkWPKmtsumS-U6-uzz9G7CKBbj_8ioY55lEMyJHxNLFhuTVY1xoQKET8IoIMGT'
p352
asbsI2
g1
(g45
g3
Ntp353
Rp354
(dp355
g30
(dp356
I0
I1
sI1
I3
ssg32
I2
sg44
Nsg50
(dp357
I0
I00
sI1
I01
ssg37
g309
sg33
(dp358
I0
S'nVnI4YFg49w21eVVxXbJ4-XSzQXPaQ9DYQvHfY7Fy0M='
p359
sI1
S'7xvLy6k6NUPRHZxXy1h8sVcY5QGSa1MrXyKBcJjxvsA='
p360
ssg38
(lp361
S'gAAAAABb1-jbLaOCBAnU7Vxn0BzRI5EN6CofMqdc4c07lAkDS26pRlIp7u16PEGvB-nf6UegID0DL_L1waKpELXWuOZQ1-FzthuA8IQLcM1FihFtnBxNMY1Me0E48Q-4b2q5bnq-l7ipKyuvgTwS9cDlKqfIsVd3tnajUdp1i7dBrmefr2vP-6rwepNKEjMXvTbnVR98UmWTet1sPextmmRk4zX92lndOwJJ6C0qZ3rlQFjrTHMDBzwdQdCP0LPdiY2fxCreIx_0'
p362
aS'gAAAAABb1-jbaj4RrZVrzGjA8cfJRWjDSxcfQPgp8Z2Hm26E1bgToQXQMAdt9tS0VuBJbsmAACWWk_r4m4i6rpKgK9hZ-TAPsjRmVSczb9tFKfMuZtOBoQwtxqr2Er2f_dVVgxtmkCy5fiklEOwB7TW85aNidCYgDwiD8cjdXc_IB7_jmkRSuEXjxA4ZgJcjUXUvSAuac71-pTZqjSueiO3GazqvI1ZcWSb0KMfrnA7bcs1xVgYV2FoQfZUoCxcRby6Pn1T9sFdk'
p363
aS'gAAAAABb1-jbEOrx65QyWUfflZhWf-P06i0Pk9vn81fS-77AvoBAXkuX1yzNb0N8gK9dwj_4Tb8KDN4zljWcRq1s5lULP0RZ7n1fMTw83P1bDSroi30jqiRimgJ37y_1fhw-rbkPNDthTuY69bHG4e91DsoheOIRoFTV6B0ovo5tv-e6xUq9o_up3FyKosX2NMwv2z3GxPXpfo8--c5gaSRnYbVUwucQoijxxKirsNnM3SGEGiwlC7arQSnebf786PsqurC2zHvo'
p364
aS'gAAAAABb1-jbdxZmXdXvC1UechYjzdkcKD-TRsQs7aCwmTvRi5rMDfvfQPsdewxFynia5f-0p4LOqt4gHtxLH4gXBjL38grxapMtZ9bf05ysaGs3Kaz7JkZg0qLxVnx0_pmsOs1z-PjVk9VydANuBijO7FVLpLSVCb8ODbYQMTGsSZ5oza0rCezuSoRhZMQ5m0jl8z_eFX_9nNbD_kapKX8g5eHv6bG3fPyipebicX3lvuLmEiQMBylQtx9zLrmQt7xPiPBoUBYO'
p365
asbsI3
g1
(g73
g3
Ntp366
Rp367
(dp368
g30
(dp369
I0
I2
sI1
I4
ssg32
I3
sg33
(lp370
S'[0]'
p371
aS'[1]'
p372
asg81
I01
sg37
g309
sg44
Nsg38
(lp373
S'gAAAAABb1-jbKwsl1EwUx6JdBGtzggohebj4Km3mHxqszLOZ_-y5VtjcE8FKJF1ezOwhVFW7MWG47MXpDfyg65dihyRxTbbg233OZfIfCsTCkT_HRIdIrciIQnDILXLR4V3elS9tzLoDjqDeYpfK-RCHa6WIwyur2VX6B8Ha5N4BnbHs8onwz3PaX7J0ONi_u09HTf2PGe8TFqKGRxPE9DMai5Lo8A9OWg=='
p374
aS'gAAAAABb1-jbWGp7vOrDrAc4JFri9g7SfJpKkSlz7ckNlYqywZzrAXbOjr2A4ctInJViQmztWdhVIoQ-5mAglsuDg27KtBX5FHSyDsy_roCPQiE3-pLgk13Jt0PnJE_SkRpcM8t8GsFnXmCeEnL5xuRXYlA0XaxEj0rtkjEgU6nwnJs9hqahF1H9DTU9kqYPt7YzYr7HKr7lQGCoMsEwzC0G2U4Ln3JgHQ=='
p375
aS'gAAAAABb1-jbiVBt4U7xkP9gBmM-nVKCADO-rxAuG5DZ3Lp_IOFMpjIBb3Q4myvtj8t2GhFafrsBddTVEwHtmGgnxGhG4p7efNBsVypWHnVIWznf-RIKYBJUkiGRry1hPXWwz21X8WdfhEMZ6u3RQMgP-VGpsc3SBIYkn2u1teQmGeM5n6VF5opBkZS7hHUAS2IrHy4cLnxm6k7DP_uhdPG_wSee8Ocmiw=='
p376
aS'gAAAAABb1-jbybj8hXUVL5zOrqA1sLnBCKZNzJnFQyAUIY235FwhkGJT9TnVsANkrQeKxYbxv5fR7M7lqEbZSxMqSRSVA3rQY9xP0lGoIixBjA-7QSuOGcsWHLYaYGXVBa-IWnDoI114EiP003FJn3b198mssMeXBAjilFpsSRV0kEE4S7rudrPMAXEU_kiLBoNzqDKX9DuF6McW9yJYqaSlJi4vjovTdA=='
p377
asg87
g88
sbssg92
I5
sg93
(lp378
I3
asba.