(lp0
(lp1
(lp2
(S'4fa165403bf2fe3d41f38bce345b7c5ee5be5340ac4a80dc4351341df2a2adac'
p3
L57106078090114080118051066115102088073075070108057116113380074605733973250120946696784240865815961758852542342424195374264710789420L
tp4
a(S'84a5e4f7de35566cb3e436d2aa11eb155c44442f57151884a50eb672ad0de220'
p5
L120095077085069050085071076045089117088072097081075073097932024292658305850742588205955550821825332810485924872993671193138017416599L
tp6
aa(lp7
(S'07c6912dffbbff6f0c8a6c974a639808962e05a724d65dde4629054c6d2c8444'
p8
L90070120068084054086080048090111077088097048079076105113026484527638149526628464064763415213116797537790269293368036149848946305387L
tp9
a(S'273c30408bc4b75cffa33e6a5e8ad589e48c9626d33f5d232da42f0eb28e0a4f'
p10
L72068097097045105095051117115099072051122071099119083079797324398301425767603988101536177789317385955875208180689887827325494561520L
tp11
aa(lp12
(S'2a3fc936c0d4c5a9388c0ece2d39fb5690b26fe8428dca104d6e23e492d8062c'
p13
L49101070115045116100052102048120051072087114069121054101234962175786920998139531988637155134485522187778893248765435292006056922120L
tp14
a(S'85514f81b1d6caea70923e39a44d50d151ff5fa0f5ca07c442b7518caf8ac16e'
p15
L57052067115114065079089052088113072055071048053099049098649549137479849122955980290293971242795117821836491013531234965768702945906L
tp16
aa(lp17
(S'ae0f2df34ecb33d706006cfbce2c026b973c8d4f29ab341291f9f46b92b8a583'
p18
L113088057070081048055080105074075119090099084082072102104377094577324054983509664850338270801075183242365110783763536180396257786789L
tp19
a(S'24381db1ca862afac766150c28ecc42752c8381cb016e458e0cc46fbc2b718dc'
p20
L69099066106052068102118080121098073055109097079048069200575616288823764174749818315281432363132971796525050206333280965771016739314L
tp21
aaa(lp22
(lp23
(S'89e99379e0e3991a4938ff08f9a5e7f6524c4c171ff5f687bf1c4169d1795e7e'
p24
L115099055050105069081118120078084104084110079114057055129050920764967371386155318529119871383616366057098026668401455632413437892489L
tp25
a(S'731c87b3d1053aca5c348daa891bde8e119ff4391414d52c35306f10dc49ca02'
p26
L109086108081051105089066054083112095115067077080121099015127118769376308616851830793550139558839548439152477718282378196698518943473L
tp27
aa(lp28
(S'f8392e6b70cbaa42748af0e76915d1a853f134a7677a5e4de624c223cbced386'
p29
L99101120111065054115073075057072099071103071053076109089323825900361359369219575270856236567435831161611765329155819337576986774782L
tp30
a(S'6d515088f5d5d1dae129f7f54ac95ffd02fe7004ba75839f26ef2eca21194dab'
p31
L72045101097068089098095099107114072102084066100097104051421773458668971836356802241918978270487490698964121731866664334245499789515L
tp32
aa(lp33
(S'50ea6d390c81a9c479256213c023c192c2c7af8cdfcbd3f652471b318b497b55'
p34
L77071100116114071065105114057102053119077066071073101109151824557364296981269078137297517365500570440951342153116398022621939825600L
tp35
a(S'80ecc87cd79a9f1e1b8d1ff7a0d429a38625ee61ebb0df9b4237723c8adbf31a'
p36
L75074056074114084098070102102119070104057087105052106126941134534214701410909291472606815229138347224613825931769042471955157488346L
tp37
aa(lp38
(S'f7fc228ffd5dcee9ba7f6fa4336f65aa50641f1ffb00275d97e4f147953c5879'
p39
L54110074056072100052105056105117079080107075048071087154523339362862008521098481609437336467802033511043201247243245622855231010341L
tp40
a(S'd2008bccef13dd23a328a261b6ef1c14c108537da59a2f94efcdd5ceaf3f6478'
p41
L53077076080117086052083076089079118077109110053119072158018191779557638443374905815620547254773383047997938022844234183313560078825L
tp42
aaa(lp43
(lp44
(S'12d95160c858d920f791cdd730b10c6ead5d943fb151e6a0ad796f72717d0b20'
p45
L107112098089108110051049078067111104102105118053051088129826388649594007877776397862088022775839207953985966582397767003569367955496L
tp46
a(S'b7026d142ffe33dcd46ec3af95c9ae8a62f57183d83211bdaad2fbd4b1f178a6'
p47
L104087078122070083083050112081052087090112052100071089051804907364650960033653076724403390090905863286820636433642701340582161262587L
tp48
aa(lp49
(S'6b238c3f981100fdf1d4176c83adf61fa40592c4df833dc0eeba824d7a672834'
p50
L107122065079053121045054117117090067055098081108107101162514043762823367386278812220748745535309724979293058378237675594990925412579L
tp51
a(S'0f6de5c1634c0c938b36f39a16cc244cd35607d9c2bdc6efbbf2c7fb53ce9c71'
p52
L87107113099101108116084053095050095051113075089056068160108227482012069312236737841297631088760781797679218986193287204592157921441L
tp53
aa(lp54
(S'b5cc78272454f8f175a4ae1d161bc8a93467a829aef144152e066c7189e2efcf'
p55
L121098107106088075065085119074121089103108071095089114102804930324409371951868042755452668676194822205662158202378412999245587389321L
tp56
a(S'b85e3b9885b74e71b887ae65b25f5ee782ceb4b1014f874244b8ca59b36b078a'
p57
L68117102086121065095067100118112097045048068071087113047122288122955703076755167715284354841439496804034635752166578004505931222057L
tp58
aa(lp59
(S'6e45f3a9d1003cb6791157f50c0d2c6f24ffb0e7055a1bd4e92a40a3ae3ab585'
p60
L85103078078101098076079075099054054077078050067087103085152117215156646478274435732018656086401672911989069901538072029729818803282L
tp61
a(S'4e495f46121433d3fa5a1ab9ea807f249b92d8691e6716ab252360b4d23b4a72'
p62
L57085099099107071068074099112104104089057078055053122059481453683176006671145540828915605500513402373307661914930220889876814669378L
tp63
aaa(lp64
(lp65
(S'cbba079f506ebd7e4032dee595f4d3b833aa5dd1ca03fe157243ecfb1c4d2a0f'
p66
L71080089055066100088114075101045110110076122048089071157204655539209029543494451525083768781997673183457242101547707101613111731380L
tp67
a(S'78a755376d1566b4e2972c329ec2737332444573afbe6bdf9d17218a7794f35a'
p68
L122101084053083119095056101099115098082100085057106054025952400826188255128685958749135480660316409440601646913992904009479033833171L
tp69
aa(lp70
(S'43504c66b76da3a6150f7e1a224885ec82b0dd3fe1cc9ef01d7a82911fba66b3'
p71
L104072067057087118074115108113103106053102066115052057036594959860796316684346461206410100292223044057287925285727117345751216963524L
tp72
a(S'd56ba9b964f7e00bf2bbc7aa0c7947116f21fbef6d0f373da8a6a7a30dc83401'
p73
L117121117088067056045078082068106102116106105097106104070910241227240340414899304766114374976085033296385104616586758400451950876081L
tp74
aa(lp75
(S'7f2d4c4905e89ae020b1057bed28e7c110af141c573abd146bea7ce10a786fd4'
p76
L115118084116098074109075057049098075116117114077080051981292489611075897623385630365599551784606650048668316083846323716451643619374L
tp77
a(S'84f079fab0543bd515808381e4d4d951643fffed937d0b788db307dcfb9b6968'
p78
L70075122109081052081095106089073072119076117119079070157715259376384649813865346026929295765196166287084635633639730279913173804115L
tp79
aa(lp80
(S'545f648f1cf2b6cc34ce9a97a742331afdf9e312173332ee70f35b8f4e2e6bed'
p81
L68113113120088070108121082074074079066072119078104065053258702324715622890576692227574311604284556936548579589742065289706827352878L
tp82
a(S'48103bf069789c9dbb1d6d82ae53de41a0cbac07eb9462676361a2752a814f89'
p83
L53056073051111053109122100071121073049106054099083120095242574378846321060048955570294394396737154494759478044582189431107641104995L
tp84
aaa(lp85
(lp86
(S'3ca5baaf3dde4aa6276bce0ae14400423bbc103a67dc4b29dca79bcca6c56a6a'
p87
L114113052071083066105078118074070076090099113068071069092907467018763580910426029798203752365091150364532568826730868091634213845963L
tp88
a(S'332be0102119c2198fec2d83209b2a929fb60d68eb3e850acc4700a7745b45c6'
p89
L106083053085080103077108073050048098051087056095052056047756225075349679051162543979261934407062698666119316820504020112321180373497L
tp90
aa(lp91
(S'85978031f45201b0d69e57bcb14f032e0a3b44d413eed287e65e4d39f241a353'
p92
L107068115116066055053080107086057078109115117074103085171836415926623500198129331007976891901133884514127570281760412419793964022583L
tp93
a(S'66732116fee2a98d4c4e032bd7063c7357991a6d39033851f531f946ee3c7c8b'
p94
L95081111107101072095070079065067051103078110116116084054290869545845409252742953703224552669033115811011127176452040777102298355916L
tp95
aa(lp96
(S'1f7ec051d5353b16b2b1ae9f6a3fc8d80bb029bfd6048e2fca4621c4fc541f3a'
p97
L72110111053071122074108068105111104120082098119078079103575358695908815640768281536805002842798618615391808264990004922592443392695L
tp98
a(S'bbefa4cae7ea72fcb95de44d9f60f2a2251cf6a830f860a5bdfff9f9b02b6f72'
p99
L81086119095087121097082109078108085098074112107119087159713037264316822431510351503729746048224451022662450051183768138818313025649L
tp100
aa(lp101
(S'e575529ee3fa41aa90f9725e01ea8d8a8ad18821d0e8d891a84cffb3b7f2d15c'
p102
L110101117068070088076085083088101077088101050051083113976099057990146019499743837410730587181059662487639193626886796411452845995291L
tp103
a(S'ea9530b7fa84af0a3d13c94c4dfa341008008351cd1382478d59e6a509b0804d'
p104
L116076120056112095087085054079068071105101080050090048058588412425525858344271162891148874816279535543979500617638744663171264965080L
tp105
aaa.