(lp0
(lp1
(lp2
(S'2a40c7a6bef3648468d3dccda881cb9ee38caaab307005626e374cea06e93df8'
p3
L55076076104104109069057085104089077100067103102056118135764759945377175491034345102000285742879365502585578109008171883584102912923L
tp4
a(S'a42100b5d10fabb1f9603bb47b4566665cdb4d71019d37f18708c98efa567efb'
p5
L89069097097068101101098045052115082076086107051106076158502289767237828353245259916325333897524197716735426152822030074555177916365L
tp6
aa(lp7
(S'834d9327572a5aaab9ff90ea3c231ea5a75ae2a37536bb92ae482e0498211230'
p8
L99076057114073076066065057052071099071065100120106100033556363147811959842749770509200957811892807901116205142772468282276614042459L
tp9
a(S'7da7b025f0225482a09bb669b7b0bb3e6c038d988f51d5fc0e982a617826c87f'
p10
L98117095066116066056106095113057071098070055117054053077475887789467340752354873373596517541777761968490464186962302618625490471113L
tp11
aa(lp12
(S'1d7423371292ea48eb788dd210b3d6a0844e7158d1e002edfebeb5164700bdbe'
p13
L78110074104053106080078122069116095089074049108108113043573953382592071413773560046827263529795314933815811749657943336422711210994L
tp14
a(S'c5ed5e46e732608ab876e5aea7e172a51f93e536394a1d26bc02a476fabff433'
p15
L57055106105109107082055088090100106083084086054049069047535632731314325564125868319488320620863883605359666239813307004917395406181L
tp16
aa(lp17
(S'32ea4cb62a70e2f725e1b09951da980ed3cc1f47c90009153b824aefaeed9f25'
p18
L106085079057118050082050075107055068109100108085052075216568928700758115291686180232521201043710003360041498522252206615209603456685L
tp19
a(S'6e24527126af09b93356eba6859746d2dcf6340b11e4da691c9f5487ceede5cd'
p20
L85086068095116115100109120073104075081103056100114122105680214524155372942702746268789227347313950433489762625073060502462065227908L
tp21
aaa(lp22
(lp23
(S'8c78fc281c68cec5cefde3fe5357ba8ef7ec7403eec82199c20f42f91e2f5ee7'
p24
L53077072095118108048065104068057080107069116045051051094702454311004657191111008876352145999448545704976092339424539284221785656293L
tp25
a(S'5f8882a50da4641883f1aa09a514ec723f340ff2889208ef3a21f65f364880f4'
p26
L65053068054080070075045070049104055114081090090075072994000864614248658016689944730502167897989694577581416875815357702015634579995L
tp27
aa(lp28
(S'896e40a4bfbbd8eed075728728db2c045b1cd0e9786b52dc088414372cbe7ff4'
p29
L50065085080072089078051119079117103051078099098088086125416653952560462184049615140244650216661735349324879449729133873962195036818L
tp30
a(S'a8ab52203e115ef7fefb1663e64776d9a3d2ad44fc8ad24e85116240e7f8352a'
p31
L106051048051105056104077098074100070101078055071122101054042971604277167649726216806392777639361591093420151605777433407237076664446L
tp32
aa(lp33
(S'ec3828e73e59ad5197b69df305b129c631897a42c9d3ac6e403bacfc00a86ba1'
p34
L103074072100072068114108107097069121116100078073098099191107977682942783629379687347408433709488110412838056785994724888845146297207L
tp35
a(S'af29a0ebbb07dea6153f0691753d7d99993e58b754a905d27d151db909857781'
p36
L55074119077106049070112076050110048086115078057071106117875275418591892802979199290497601731673835568710398020259302229824777360524L
tp37
aa(lp38
(S'042ed1c1c622e0a3256013a68f8472d039020a46f263b2b684c76914c9521957'
p39
L82083106075049088068104115097085057070056072070045078130057065346423342684542656304827543722771014459852475195917045151238847194555L
tp40
a(S'd07e9fccca5b44c35e951ca44b4063408b62787b64a856a689b238c67486acb7'
p41
L95120069069071083119066097107048048106097084081078084036894772084858003166330563286586870547300880021663173868908377592824861389442L
tp42
aaa(lp43
(lp44
(S'3fc227bbf414d672a5ddb78b0f064bc232a44e61d594ad075a4968aa4d06e725'
p45
L86081106107052099069101051117083074045076066072079051117410419966504193803841951874941676509961859788476465045091587477763658995845L
tp46
a(S'858338d44d831a9beaed00f4b04d250b879775f62cf4deca14538266a0e76ddf'
p47
L67053118057102068102082110077085076066109118077050074137600624800022749417402125687667169948854370593405154213931979046045158668886L
tp48
aa(lp49
(S'489a0912253fb9eabae0def908d01488415bbd245ef2f90b4a7444673804d281'
p50
L116101095055067087087082122069100106057070101119107082121501777247033430279919054624105574678083600105883223053023745053924817837663L
tp51
a(S'3aeeae702ddc408da28531e24713e46edbe2e1f58800d208fe53fb0068bf62ba'
p52
L120080107106053090076121068076112114085110120098052070040216458397088638040837489971186942492213386406531665999340098906200902741282L
tp53
aa(lp54
(S'e103bf4d1e16f1798373ab9b2149ddb4c63ee4369f58e01599bd487f9edd9dd6'
p55
L56116075106095069074065118103083070066104075109068088997433069509746915535472852646228000970590859069460551390868141093844081879428L
tp56
a(S'14bb7dfaee13df469626f2f586860011b5b6a8af83cbfd38e7ffcf71f747bc3e'
p57
L80111081105111107115075048108050109095079078100122118069609092227064231480345284496016368762894571850914127302536342342123111859580L
tp58
aa(lp59
(S'6ca08569671a347a1607ab8c541daf4758fde52570a8d5b41ed0e6f2ac7d405f'
p60
L111118086103081112072075068083097052116057102053073081009042255692021855462679816643589283719180928219124135172019679475255611242060L
tp61
a(S'ef71f250a880d5c2d8cf44cdaf439c32e2187810d905f64af2842d5135d747c1'
p62
L121110075112090070078118097068054087074056100089116056035111112491852395642198218628634264520722232599095848485300707364823160502222L
tp63
aaa(lp64
(lp65
(S'4ecc7294f3ba24507d05e6816ba11de68f699eb2607a92a846058832bbb64840'
p66
L104083054102079121082071097082079071104065056074087073019604891518893683198078040489288276347247963459346309997517869732058340716981L
tp67
a(S'2acfec235dcf60670e399cd66632884191d93af9f4232e8cf12cefa21a82b7da'
p68
L69053071055052117057050065102054050090088097070113071120860307360502976574975845012235152148706537204493884027579664826789744948249L
tp69
aa(lp70
(S'99d017083edf73ed596c6033fe68c75f088d0f7a34d78d2f0840ecb7308458cd'
p71
L87107045065078066084120102117054073111109045118085100091073128517574280895725882795322800365664855523266939189699846714370200887664L
tp72
a(S'2e1d7524c437ad91fdc9f8314a62abe1900483539abfe4869f5ebe72b5bf9a41'
p73
L48116122097115102049089111086054089112049103099055114131005515916659875997310862588903291317993645581739950503849923383397639134613L
tp74
aa(lp75
(S'16017070561a02ceb90f0a1d28f3becabf395803f1c75edaf532ee576be2cd76'
p76
L80075066077057087121074090048105111045073120089069102118436443221341026762743388146971880846095226036703926833292654564446221935637L
tp77
a(S'b408f79321f26d7cab4e4d82c29ea69199c51669e215db9d9d2640703e5cd85a'
p78
L113112105055116075056076117107103066065101116066111113098671512633050809118111565913622280552762084064096692800149120852419057155433L
tp79
aa(lp80
(S'af4859b395308676fd9185b0cfb7906aeb9a707e982ad7f126445d612c2c1ee4'
p81
L79121089121117080107045106090056085079048104087066102131732345480053783519807070033016982268767100661307150517871550112460760626385L
tp82
a(S'e3224212877875a8152c4aabf2c2e06d36e859f6fe54abbd6b473f543463cf07'
p83
L84103099098080054083057080114072055097077056067089051081260714366837738680465458563927804453576929827592070966727958078568963902066L
tp84
aaa(lp85
(lp86
(S'181b2d2040f554173ed6d5a35af9b5d53b671cc963e556e1f569839541e1f479'
p87
L77118118105057107051119108103083067071052082121087076118100517962540576706915295594265923130887867256246845337619284930893760293326L
tp88
a(S'f3b45b0d6cf924b0b3de24647396d3d36b8e9faa5e4aa12a7d69ec3144e60b62'
p89
L113079099109082115073097057067103050122082103114051100068993726125505823815457293704187440888140352639929991785841852992380972138858L
tp90
aa(lp91
(S'65c6b9bd5210fd9417821b7c712a425f4db5f24306ac391e864cff95b015f345'
p92
L98097072119108079115057117117085110115119106051087045112622276578410397920917360233459790229646663172296728434071783787271825473616L
tp93
a(S'9db201733389f05cdbb031e777de82c95c1d53d735b81cecb573e48c0b2d5fb6'
p94
L107068048101077078114071052056099085105072050107073079155792956542808890427639645814728275784372139046269034216155864225580726156955L
tp95
aa(lp96
(S'4a5202fbaf0c3f0688a21743600a5014f02f62b416130bd916c2386723a1be12'
p97
L102066077095080083106090109100065095109098084111074052154878394234498979030629630775043064536310996673453913561176681463783661117167L
tp98
a(S'd31df7750baec6c75ef7f2b75c6d5d24b3cee68fc03c4f06105d253f37303288'
p99
L117115115079071105054069051078100085081114082103121101088938882902651200859193105633916556353891197404870786814937469818485179489067L
tp100
aa(lp101
(S'3c00501e53ef837a8426a6b3d9f359c0e092c2a5222dc1bb6125e45690f56d2b'
p102
L111097057095118108103054079100056085111087110055054086129645101835055800407775749694134123142982483528877089195380133380523357299255L
tp103
a(S'0233afa0278db923d5b10aaf318d7928dc77650914a2cbfdf47f475c373ef66c'
p104
L109095057101098066100074068099054086086114101049111083089913221309489659059064920467273846985515651604257182451868969414861898742481L
tp105
aaa.