(lp0
(lp1
(lp2
(S'd61ecb9a304559ac567f03064bb1c5172676b846c9151010d09ab30253b8c63e'
p3
L70109109119101111111065050100121115089067115067065068103770622380233828398022577973481605664092703447467982570792215807084020213084L
tp4
a(S'e37a850f9090f69742f3b8681f53e8dcc2b7a35fa57e0d454ba6e6fee735b1d8'
p5
L68072114086105075054119119077050055089082051115112049018866902048775335871977886264674918112106439199635597959248151632988312390280L
tp6
aa(lp7
(S'1d65e7cb0aaee9d5f6ae791e951e44df6580a5a4f63659fdf39cca6ff5857fd3'
p8
L79087106076081118072108109074072065075057084076078087025385485004248906463477587840122331109096429780887340673194138967574364720489L
tp9
a(S'e9f99d37d3da9338676cb914bb95a13ef286c6f615f20ba669e4fbb2f00a8b09'
p10
L49109087111065102080065057106088052068055099067081113090104818762492600043458453485317646531497707958884783208211776902173768120052L
tp11
aa(lp12
(S'0f59a5aace4e5fc086d622ae5599bb6ee22dc9849563e3de71d3df91ab593791'
p13
L67081079120053114083050045117073100072103086106083114110011811556423582832348552272745327288508512046687979510087893788831083543279L
tp14
a(S'db18e0634f55effcd8c8b8231dcea0c00d96d4fa29d249824892e195d5528522'
p15
L112088101078079073099121088114121048103109107082054083202251689167772893104873799727717027847963674014765905812139229106822074772593L
tp16
aa(lp17
(S'a1f61d2f6b99478e0d5b9cee790d6b6d2b111e045a5584660aeef721a2d0b8b2'
p18
L81050088095072086101084106108077083051103105117067048148770033866936625051301291439169119798811644623357557786623427898329087938979L
tp19
a(S'779c238767b23aa9b6f0a95f421d39ea58f49321aaae9e19902551e58b57b941'
p20
L68054088109072056077112099056098084052083078050113089136882586538919179206794277356864126184595004465290552004815970379744122351062L
tp21
aaa(lp22
(lp23
(S'75d3bd706a4da2a4d189dbb7edcb95fd663a6df7346c697e98fdc9256afef702'
p24
L68082065055118106049068072109122081051065087102098118163327970279363124503964331619615210616683269276438854447248180794364832189135L
tp25
a(S'80e5a87235469b412159c76d616f64bc3320ac633ac77d8118d4e0be5bfd938f'
p26
L73121106082114068120103077066077066085119113052079106034192033262197950114612421737677714059266340787589398353771717075643080740605L
tp27
aa(lp28
(S'e440f3fd67f869e1740d7158ff39392e6db1367935fd79751e718926345849d3'
p29
L67110107113055057111104090107083048053114045048054118089188872002402613702600248171558235921024838713271604894520283286315300357099L
tp30
a(S'10863b314da177749f18e05b21b7b7f1aa9a2e0e7c593c77bf289ae00e91c03f'
p31
L81050117082100107078113115074088106051083051122079066047691630065299222487682798030271794335066313446415187904583099793300344585078L
tp32
aa(lp33
(S'f86e3d5da096a94b5fae08d29c89837086214c11f919bd392fc29afbaddcb1e5'
p34
L68112085100120116118113086089051065074075121121080066079345304941575580037624518778636660192552362695144821581920694581860421216667L
tp35
a(S'7404a4880528f38e7f80413d8981df8cbac6aa16fbec87aa4c596485705239c4'
p36
L105085045101083065101105097115072083071083097115072086078676218586442836551840275210164184450530363858954259656725359239490099378685L
tp37
aa(lp38
(S'cd36c0cd6eb2da3d70bd2625deb0a12cfcf480a632d8a64b16c4833147055ee9'
p39
L104116099098115101118048117078070090090051082114084101985463025457909823650681646699690608117914305671777586661448974680262105569297L
tp40
a(S'bef35b56796082679b7b065a7c02162be0eb6c659d62dff0bd8f7b2c5df79290'
p41
L77087052071118095088118080086057083106081090045090084015083690138054132423381358267087448017582008703255845025231063158248381257252L
tp42
aaa(lp43
(lp44
(S'26e50d7f07b3fa3951e01c6006f0e44449f7292bb048a2b8199d381750779d10'
p45
L72100100102106076107114065087103119055089048056108083199574454999913954203971626692643822456495736352329197518100144316103316521056L
tp46
a(S'3b3330c5bc6f1d4ffd3244fcb14251847f2076f4a6706d90e815f904b7d2acdb'
p47
L79101083080115122070075110100112090106065075048067113101714498744881891912556484974739195928529227034708606744621084440204082704997L
tp48
aa(lp49
(S'df1f25331d92c979cdf93f6184bf6c64905bed91a118f3806c2d9a86c4e34ec3'
p50
L121095057045088050082068110048122120049107099068108065088913559175226341654041139815453337380702601136343945634967119766595281338063L
tp51
a(S'47fdc93c763fb747129fb562bf7176b2ba1506471c08519d8b403a6948158597'
p52
L113053106074073071109088085095070071087045065112109048068530963920263550970807194019827278890398156129629323376131946079871034199531L
tp53
aa(lp54
(S'7ec39e7e58b28114545d6035aacfa3f15ce6a53851a04586ae61d752404e364a'
p55
L87100054116067079097057079088114048084100100055099045092543824713192169208576394608044401570555765519064365391003100378793435094876L
tp56
a(S'7101b190847919adaa62b23d275fbb36a4a84dc4c06c309621a5424869dd02b3'
p57
L121083048085077088073086070080078102115116052113080108178736388628597348076808242019052120004842184550452726203532301089752452813028L
tp58
aa(lp59
(S'40126152e14be9362436113d1db6c04d4307c1d2f424f0ac9bf82c25e3442dbb'
p60
L80069080108105056076074110103050082117080105082105107101340349050418258154959817574251258518119725790225078141314626458260399877419L
tp61
a(S'75178b2c084cbcca2537dd98d02b2154095df866fcad98619e67904ee4e556e2'
p62
L100107072067049097117054102117112117074050100121106053041638932903051737608344634586120510227042732011672384725905670439983202479406L
tp63
aaa(lp64
(lp65
(S'3c89ce71a4f5ddc289247d6a25ba017af0441be5b0724cdd773350b178084357'
p66
L77121069056085081045069086048066098057116107105052114176824270174475518922639790941301646100234791259319882449080381819025028438506L
tp67
a(S'0bfde59ae1e640e345d46fb110e5c5c5dc13ab8000a7919c6f6d0ef5b199e61e'
p68
L95088109106122056095110081077074069054048082086075065053206255165390201743905276289933197164093102680022615977926865751234285411984L
tp69
aa(lp70
(S'c7a5bac884d9063e179f5a44a8ebe20b3e7bfec0c9397676938b09e63ea35f5e'
p71
L90102052073067070084068110069113082057121099084115113100872344388871668446120144500923612392176682127147287440152357052807922543031L
tp72
a(S'a09b4eda770eff8e69bd34121cc73171c16eab7ef84c9accc1705e0ae4f324e9'
p73
L100045055057116052090115071109057051075084103098083097022702663277969136818334750739045071310685761857482244653382277485888334579498L
tp74
aa(lp75
(S'd53f3b60afe4ef02e38e76391b124e5f747712d5181879de847f0594c7d63f43'
p76
L73109116113072067056102066085075072045089052075065106091745459542181883318230150437419726134390633417107521160921642680434252206108L
tp77
a(S'67164ca51c44e8c58d26414c9e128bbb515cbaa3947bd8db23a3c749894e21b4'
p78
L119045089120065051050057112121089100120088069045103103102171778415852409174653129100285654603638707320251287737956798104061907220559L
tp79
aa(lp80
(S'7bb37f229ea8658765a18eaafc617d52a0cd5d15aa8b887909a0c18e2f853408'
p81
L70057118106074121049077052051117084051099075065107082127680185653828901915130573686395724780697738631668882349646917518592348130289L
tp82
a(S'785bfb470f8ca8c8afb0a867f2e3d78ed52eba2560c76e344815be3c8066d9eb'
p83
L48067106071113065077101054056066052120100115107052110118313027004067082464495689837213293924238489267467746251963976212855151553105L
tp84
aaa(lp85
(lp86
(S'cfaa1de6b442deb6785570f59dce29e741f771ba41191edfe0c29f08a99c534f'
p87
L97055085077049054085053090100121056075089045068069099065585525943208799351482902609189106073193329327447511577391675823500021386711L
tp88
a(S'ddf134d15200d130dadf662b2c824c3ee03c86bb8831894a73a3fcb6203a56c3'
p89
L120099079111110118067104097068053050070052103051103115120616065636868936717758923870226475572350643710636274415237812360415323541669L
tp90
aa(lp91
(S'6a3f65a1fa7001f66ad2e56396a5bd3a2e5c47a139944d212f3b20cf45a35392'
p92
L49090118108073072119089111103074081111108113086117068110403922099170803992032617672747329367060467411830173322162443900435661703582L
tp93
a(S'a8c603cb352753de16b4a620b99838f292f492c74d0083789055bcaf1ca8aa9f'
p94
L48075085111078095106068048084077109073117055114107107090286963117450030038616592015669058371758583047754896485286905937252100176446L
tp95
aa(lp96
(S'8de746a51f2372c4ef1d7dc720bd2b1d54ec5536d60502155de173609d4e2dc1'
p97
L103081110108086108119085109120071119118069104115071082128732434936627237377250937927397286207200144165441058722243661940251748478764L
tp98
a(S'4aecc1be410031ccafb94675a40b86b035ed9f5cb347ee7e4a033b4214486959'
p99
L55111076090100102118048087065097052080072054069108052111987908515856465632184064333858653551729480402398939813002833322375505369689L
tp100
aa(lp101
(S'f7c3c43f2f4d5819c2b6ea585b92f43e88f477f40c096598dc08c4b0e893ca66'
p102
L79100108121109083110112053048088106083116118072122095183759560280206717924208841163297580648893165160963122779570220818510540977466L
tp103
a(S'8ed7d3308a8c9e569f5c660a244bcac8f3ad010697ceefe19e5bfa8b2148b75d'
p104
L108117070105052107048114113104119099108073110075107090058134485883481922203776555851763600103913395083699544073485568305251138067364L
tp105
aaa.