(lp0
(lp1
(lp2
(S'1470167a4257f1a82dc6231026c3eb51620213275c32edbd1dcdc99e4453440e'
p3
L100103116070053073057110050080113056108049095053116111068396314501171538007895481409397357544961035155869180244298105230395454403179L
tp4
a(S'1fbd2670a25a54ac8df434c8b9bdd85ab21552986ac27a1da2db34ddf6f366ba'
p5
L73098080111074051068119107095112084116081098076119086104572721456329928936381284761747083822823926441572776876290975200471776619250L
tp6
aa(lp7
(S'197d0023a0d58501dbc890e2bb7f154830addc961763dfdefd29c11a696ab73b'
p8
L86087057067113090103102066053087086118049114103065052056508890965644436540687250691014028631019842699034854994059949715060216784666L
tp9
a(S'99bdb7eb3d4bf9075eb265b7cb3d123c9e43ff6ba2a8af3a0d7e986588016053'
p10
L81097108074068071081109108097099110054082051119067105088802070090128050695926251392337893871309377922128750199332993276891787170085L
tp11
aa(lp12
(S'82be9f5c3fc6d27dddeedce99a1c699d2f41b3892d72a87fd9e1bed1bd71714c'
p13
L85078107050090054072108104104080103053080069101069099083437402627573708925584150593830090579005634178755623811035961798795631924467L
tp14
a(S'0501c8b0850c434190b7dfe65b922f83242e4a88502ccac5f8d89ddd17375e1f'
p15
L118090056077088057099049116052104105081052078075118106073819689413537005944116602233941237939658166934398375617481859131587096491628L
tp16
aa(lp17
(S'212a614c6fb492dacf3d5acb8bbde103951ece12e6c727b7466341d9ba299aca'
p18
L118079109115050049115121049079073122051087102068109115143622298148728623555741051423057633381490965789842785987443101175104044189362L
tp19
a(S'54837109c4ba3eb2fb363db4df0edbc32167512d8e59831a9811218bb9cabc63'
p20
L56084111077071099116045045114074101108100095079117120135167188060773291881740294881867385104045259631676584526313709150312904686424L
tp21
aaa(lp22
(lp23
(S'175c3a94a3324d1fca2b78da56185352ee7472b300091012efcf2a4be4e6749c'
p24
L119105106120076045072107065065052088095108108108090115113416569477500484764666070297944995257421607866104125121992076260733095010063L
tp25
a(S'c81674824ffc5761f1070f03ec58ba05f30e668109f9073974a7d832db4fb5e6'
p26
L101057104056084114109068115122069087065121089080108090000875393828444675316533410559755739733000900260257214624341250741230981944987L
tp27
aa(lp28
(S'a5308f03f80ab870bc6069b82051f72ecf9143f197680cb15bb36e181224dc52'
p29
L97081081048073048095074056111116052088110054069105057117652380739063145682349855946316877829062341156309289606500200890836408161410L
tp30
a(S'2a5feba566fc549136bddea9ff9d5c2b1abb30aff78c8b7a9b89d6f3a7088956'
p31
L114097087110088070079073088081108100110084111087055068092092145963914531814331324804060348457113761869004458664258719419694508678876L
tp32
aa(lp33
(S'9d092cc96f000dd7a5f337675191b03f4c82f193df1a43c86343774e215f227e'
p34
L81114116075081055081075082098080085070106085107102078006623126574371155163701670021670834816967975079099656597000918434349643543495L
tp35
a(S'4b0ec0831380607cacc63814d62da65773945d9662e411e10bdeb83b1822d0b4'
p36
L74106071073099049107073056101120073052101112108075090087458594647468107209444158447270259886255609038201124323463447707964961894683L
tp37
aa(lp38
(S'215dc78e80b7889d0900d5bbd9ab03bc312ef0ac189d0c3d1c00da3d1662545e'
p39
L71108116080108082054088120074083103072089114071089053996935601295513313625813762035681378343748149634559709259462901195335918900088L
tp40
a(S'23c28182a60c89ca53f4d2ec6da709f197729a4d584ccfa1273efaa99d7e00c7'
p41
L106084051108081095084120111100069056081117110099113048112166158550358166342105370384514416233523082048800512283120591447335302524836L
tp42
aaa(lp43
(lp44
(S'5fc7912845f03ce3077487341b431a2cc93fc24c1b837d7bbb88965adcda86aa'
p45
L66109053073051051120065107050074112116075079102101049123156314472861537480008078743454085606146315191527334846186827625480561977962L
tp46
a(S'8986dae62dfd0725cb2edd3c1e88f1260e818023a05974093e3489bee1806dae'
p47
L49052102115105073100102119100076102105081113057065072083379061002512760684413995128747426391601572913219501251544548215850040623547L
tp48
aa(lp49
(S'a3f32486fdccd23d4d04c98e559c528bd213de627a97939e54cddcb0e1efbc68'
p50
L104102095054098056082066076050045100055089066101068084053389575783339494501538518857196474186240575666309012061426631962755975681272L
tp51
a(S'b097639b11806eb0496a66ec22e5ac5bffa38ecc1e4d71aace826fc5b23c4692'
p52
L122109103045086089108105106056090056045083119122050045086298743393961353493309494286558742691013973940885448414557084177073311274228L
tp53
aa(lp54
(S'8e1887cfd2a527ad0650677f1bdf8cb195142fbaf6eecfbfcdec444511b4c5b8'
p55
L117078072050083098049112085070052055065075098065077113058714296139958110679071389131194901177941839975730766099717502893508870362466L
tp56
a(S'75d529ad4c29f58fee447538a54900018651da91352e3dfe63230371148f9bf9'
p57
L104045072076085104090050099086098106104083079056048087094149439561925602789920998647611206529349714431190163841852541472907855039521L
tp58
aa(lp59
(S'1aa5726c6020a01baa84bf6715ed78e42fdb8b6e7def552ab33fd9657d832f8d'
p60
L122102088049086114112081099121069101071095084122121057136633759145780476976008228250690665340770392512978210387097624795264227502300L
tp61
a(S'dcb4883b8af60cd5e8505c11da39d3f0827647d15d65b1c30f12a84045e16fdd'
p62
L85074112100113066114051098084050073057111053101090075102422253665653821173253554162102445235974326252214151679558581644237016655664L
tp63
aaa(lp64
(lp65
(S'f1363e2ae7caf8ed0e5f2bda35b956a1de1e70b33f92c71172c0c1069f973fc8'
p66
L107078121109074114104102110090105075122074067082055078108604869439963055710262412557664079266266599213417821129677435465476294484196L
tp67
a(S'b15515cc807f23d825b7a111c62d90f7ebc04ef8e1923938d0908fa417acb8d4'
p68
L66057068079104081116045087081087103050102049117065053151578384961989344317549571485061386777286244581042249420224256620647795261243L
tp69
aa(lp70
(S'9f093c57b5b81c3a134b197ed6574dc7c0d85112bad71700aa7dadd230b47e68'
p71
L78082100117089084122056121052066100116065053072121078162558677931389487458396787152663601355967082042494633641128043226651580037067L
tp72
a(S'80c784cf7f4437a502dddf2c6fcc9679ea56f9ea274edfad94c96d53dddfebe2'
p73
L69088102049082101115050071103119085111054088108072114114987011699495682833278304141061479293136651321999802433079133092150675205767L
tp74
aa(lp75
(S'c309bdc005e73341709a280e3a174d36948a79a65383623bb7b214c5e5ec86e0'
p76
L101095116100113119083070084083119121089106080082057097141649564732409197101796960498201727262848748577353944843225923138096263919295L
tp77
a(S'0d729b5ef3b48fcf4968f987928103d1ac1fab2b53f242398397903ca6cc9843'
p78
L55087053098122079115118110080076110097081074074084057072177893800860807883809923649354337619713184187304764038703117277077616507228L
tp79
aa(lp80
(S'874ad5ce0033f44f2df7600bdb957dc2f0ee84be821dbaba74d7eb059a121798'
p81
L49090051065076103102113097075080102113078069053102101015625247997647523110181717860661027840445265455922952376105137902303990008238L
tp82
a(S'a4eef7eed225a6ab7225d9bfe69b9fc588fd4cf5a180429d89ede8942a0c5b62'
p83
L74084078102112097084079102119119071107084082075055049974828509207172636504932622733164147994446236058955134956597923252754999763691L
tp84
aaa(lp85
(lp86
(S'6a2e24e1226249d21e4a24823c720470499d27023b30091d67365b962951535c'
p87
L120110104048110049113048101117102083120075076065049114145762624556092789288394038586432598251971623724644359657229132763811849121326L
tp88
a(S'b4ed24cf70be6bb76529d0d417dede60150d84670e7249675dca20a804e7b91a'
p89
L65090086117056111103111079104084081077080065118071045186864606084836159499101023962134790461981604089450549602499306609574721280600L
tp90
aa(lp91
(S'46968406f8184d57f31fe5d8376163a4f344c9421e91ba1bba38a9aeabff7525'
p92
L100068089068111119114097116101119066050102074071045116988484985337798480858458232399686279602013315638129914942191940869253608397577L
tp93
a(S'0285e1cf4004330afc8b66c10f4a2847d213917a3fbf4f1f6ceb427e6429c973'
p94
L101120071045089071095065112099066104051052080065099111075184609087256525352781494218391284580075305130154410101884775039453985019444L
tp95
aa(lp96
(S'b8e0d7bc7b8a323bf9e5b1030e30fa6b04e50057f3cb65924ebb39c27783c14a'
p97
L86065100090090112104052118122057076068049116081051082117168518042204050004195128988539183651045613870104813287491750905302240942979L
tp98
a(S'6129a6a4a8db24e463202598674c929956b30d5afb4da7ab11fc91e0b9283100'
p99
L68106056056079110101080108101089088057068102072120087178772410268016009483979482335813420099405209713675199195779043057329439899912L
tp100
aa(lp101
(S'549040ed5f0cff54c7a6fc42ea3dc7280f4200524dddb71cd3b322c82da0da71'
p102
L106111057051086103081103073077100102105072080112101119132377764707254047549607242970772924133703727122384807019131185023007737386323L
tp103
a(S'af2c5d38e6ef412f7fffe04b17d16b2ab5d66c3992742c56c51dabfd2a9118b6'
p104
L95111050049049111070051075078072081067049077115101103072431368553747126267733151201011102230884296899536961834936047893057760940233L
tp105
aaa.