(lp0
(lp1
(lp2
(S'43efac7c6830caf2a5b80194da469a086e2d8da9ea6965854d88d3a153c7fab4'
p3
L119117074056069051101119072110045120090048113057116087021409241284089265312065841476481692606899395654347615613197851507291745978394L
tp4
a(S'4f3a33082b41c7c10c03af4c14626be8eae4be2efd9a1c9f42477220961d5a95'
p5
L81085053098086051115103078097086099067050090115097110009897797771877088248281848650503998416462688701802723669276890791371790636551L
tp6
aa(lp7
(S'fc8229cfa3e411f5b17568d0a641357b23de4aa90a57d8ca10946e1784077ca7'
p8
L78112112049112112083077056116072083074098121053100111099403140946881561022196569842750518290256460195579911615816562095649392612253L
tp9
a(S'6eae4c08351f8c185682fa3632c312adc0088721a9c4d805130c2bfaf69e48ea'
p10
L95110116074088066065079072089069077055087084051078070071428114342036307812536852717458663540923522858357441665159311281744087655768L
tp11
aa(lp12
(S'5b73ac395ae2d77580f75785b413fe72d9b7bb08cf4908cf0da45e1862c530f2'
p13
L100052084082084051112115077086095070049049107108049050020651709163347685819556511069723376886902346486381650919977747348464786256861L
tp14
a(S'145e1d6995154c4b4d1050d11e7311fc361be7fae147720522d9bc666371c397'
p15
L71068065090081056107081106085113079068054109069053068113416867290445487572615058372634497645903543429201385509191299572389042619975L
tp16
aa(lp17
(S'1ecc37007f80d03ae80e561d852801149011e78e5aa3fb48e1b5370f0686e0dd'
p18
L104048107084053065101099082114070084071076086079110103100372842042231216423536587273082916811802515662290119527734704003165146223273L
tp19
a(S'41c022f6f1d25a2a103e35f3bc6553a373688adef2678e06c97111e3f913e935'
p20
L83088117081114081053088082108087115117090121116109057120113568006011428557242282922844981814327390098260642934996262392710673882487L
tp21
aaa(lp22
(lp23
(S'752acb9707f7df4b400f4feab286e5181abe25ef7f582d3eb01b20eef945d537'
p24
L109111068084050117081088119106075077082079053115051070090085939178721391521491853718978916903249424542349929299057092554732761791278L
tp25
a(S'dac3a226debef045b039cbab219c3bd1153b631988212425a0413f070d4a3ada'
p26
L45069049100077050104116068076101095095048070098113067083334722431690920488931206006961997869679653425667009006716620465266830730048L
tp27
aa(lp28
(S'f5f979fd3c565ebeaa966e40e2bd0c0fb7299568aa641980e3d413a5170318ba'
p29
L107089115053079083098056069050075106057113105054086045169767802497246406934550944198716447798998584771630040171488714151099923628400L
tp30
a(S'e6bfda0021d290e0962693aa3a1c0c18d4386960c14ecd6756e175a9c03cbab3'
p31
L51082052073081078118045122099075105113077086104084054073710382293899883841629731370823742921021914343966460737141447010420597081389L
tp32
aa(lp33
(S'c90b4023917f3bc3392a1a175492723dcdbffbba073fc734b166479c8b9af94c'
p34
L88078084073065049078112066120052072065077078054104103046950745923464678072436403900541628246319150239853208964145755409580310497600L
tp35
a(S'8e09826813c43c095642c16d6875890388738d97af0897a7962dea3b6be2a470'
p36
L95055045051077077095099106116054057084068077085078074106501411606335436892726601688497676518638947335831681552151627321805520449390L
tp37
aa(lp38
(S'c5a62f3e7f6963938e16131e75c2e498efadb6c9a3953b30128a369ffc9ec72e'
p39
L90070089079105100108100081089082057117066103109109116973948018219214482089718173702307390533621490773320000052545865365339405502911L
tp40
a(S'b1637494ccb68218f3cc33f33a1c1a587db6f0238f90a82d0a2a422dbdf5bacc'
p41
L65114089052069097099050113067087045057120085116055085150102883706268328740682836506932887403143906690650000397423047203324205719913L
tp42
aaa(lp43
(lp44
(S'92a86fef9d8ecaffd769585a9b571bd846dced30063e2580a9c73d08f8285524'
p45
L74072079095069081112051090101120048075095109070053070022042357393017276802110310840953309253327781436075778763368819233859537796569L
tp46
a(S'9a84ded308d09dc6002474bc1dd49d3d5a15ac3e4fec6ec1507711398c4507a9'
p47
L83098065120055076079065045069068111071074056081110082023182094150615009163097213295887957645280636358549800138832123267016182243229L
tp48
aa(lp49
(S'20dddfa2591be3d8e4778d805508f72da75accaff8888a64c52d8fdb9cc75d08'
p50
L79084095055052118089050067081052103052071068112066107989632694114858232354674100484039752054147251761452159836714615959113636332397L
tp51
a(S'd091815f8e9c01a3ca8a9582ed666e1caf5516dd7986c4da742440834cbb6f6a'
p52
L100053114056098056089109113086117075071105074107065104063185583933569671043018430250172577721343426381666370274240557002751638477974L
tp53
aa(lp54
(S'16f9c9aa355a311836ceed878acdffd43cfb68d1553633c47663f57f982911d9'
p55
L111098070057048088090054104082101100066112109089101051007025364474106687875307719062399790261752602562674270383386575876351554892405L
tp56
a(S'2fed369abae60fd3cb12ab173133ff00ac065ed0e188fadf67c742aebb6e0fc9'
p57
L105109049077115099118075090099054113068107112069045108087297306743962064938391093422214728798296767692985370970729526083844252139088L
tp58
aa(lp59
(S'923aecd141a7002ffa8aaeb9fe174d5c2a878946aa76a6e693c529b64ec69369'
p60
L120066106101115089080120107111118048049090065051070073071501718819077736460721896651278412997431695307877914103834033592483684123536L
tp61
a(S'52f947a2b35938419f60438c220d45f961af387faafa1ce4ab5029de73306df2'
p62
L82107085100076107078113079101051102119102073089066117038631930261584172071379833098099183053230720163691958657966972684145990369150L
tp63
aaa(lp64
(lp65
(S'6c1ef1db7f391838b8a0558d53eaa89810ed88ad88091b1bfeffdc0aefc113bc'
p66
L73054070086101071052113117103078057114088075076054080093359431952592256548035564426141854733472779457012297777356417213300411205753L
tp67
a(S'62e2eb9c9df44b2d30df91eb83a330402b5a28154d92422b11c8ebc8c05fa140'
p68
L110048052051121073084108045051113097119078079116122104090167078719928705670995059299096932509930540837501996642749911150748403037223L
tp69
aa(lp70
(S'972394c767a4dc21eb6d137770e0bfcfcd40dcd468ac6bc6de27ea186ca6f0ab'
p71
L110117075084070070101108113107089084055048100095105066142055155884570687726779936993038404548921835408319244598746122676455537486126L
tp72
a(S'df5d92d3bedad37d09e78a6a9618ee712a22a49bba96207ede0bd8eb2a5f5260'
p73
L66082122050050055113107119084088114053104115087083119158267722855062636220209192494968566044056402066131427676793442034001198345328L
tp74
aa(lp75
(S'08ddc92b9816242b4fe223771e51814da0134847abe5c710cb6089a7d59957e8'
p76
L99118116097121089053085110108095098115107106105108054960248328080692503555339525878121931723044561699491347849788863956516846600995L
tp77
a(S'eb715b377ebc5ca80e6d94ff9a62fe3efdd9202a9f185abb7a21aff028556cdb'
p78
L70077080087084090106053070084066056099050078085051048147370529399428469998165623954598339748466667385874536327632540739931515353815L
tp79
aa(lp80
(S'0f7b89980f270596ab9e00d190413747dce148b3d48b29c6a7bf7e53ae9d7095'
p81
L115065056107113106051121121100070055075048056108113090083451446249432926467080139929352905938974212131828073683238362957795486131100L
tp82
a(S'a24dd3eeb471403e2ede946acacdc2db9f69793fe25636ac70c1f626c8924fa8'
p83
L110073078052115103087084074095121083122057108049050045069435720467231036507813534274435176848560340477650821619705185971991236196075L
tp84
aaa(lp85
(lp86
(S'872d6714053ae9ef3ffcfdb255c349bcc77806b25a33313a2d5c1182551f01c9'
p87
L119051065080051099101108072122120052105102049115050066008450794111955062714961231079117063583548641938246768860630950700623580148226L
tp88
a(S'e0114949342fc0380e3a7357a5b6340ee04a5a63f03fcde0597f0acae5a8c7e4'
p89
L98051051111075053090120119095050070083087089054075088073981333664387909787677315988006257703214083372582201610975823217949954533988L
tp90
aa(lp91
(S'37195bcf677e5ea6c202871f9b5c7dcc168fcdd826bafd808c64c7ad654195ce'
p92
L49065117108098075118117056070075101056080072111048103120514562804934387371606647160632451865264693371288710854014299464446915791453L
tp93
a(S'c749e0850128ba751d5e241c5996f501c0a7d659ff1fcec8c6c5849830657406'
p94
L75090055110081077107119056115120115070071114116065045139007657901378209828935364033636688214239733021037355209694464979979967488177L
tp95
aa(lp96
(S'679188c3c10dd480abbda807a283fddb6f90a7deabb7693ceb3b1123e1e73f0c'
p97
L80080067112049054076087084048071095106074110049053074070273417871368215240333218648846904244279870771090192856484665397457245650945L
tp98
a(S'e537b907d42190be2c2f05d7e7bfebfc9a8ceb5108974262686b257b9a8d18ef'
p99
L97099108121104087048055066055068098086050082120088073073142377231760738118494295981429564444735144852696299925798535185710767277709L
tp100
aa(lp101
(S'554ccbb0290ac3482ec685dc2c89494d77976154615db39ed46d58274a1cc673'
p102
L79097110069112107118070103083087084081066045095068089946195531855225778769787337437905623574150435461913005158223477790776358576973L
tp103
a(S'1d07b2aaa5826e0f04ac202516c8569afa2812c34d3853a66122f634121b4932'
p104
L77116114075105121117057095083101101090051087112122067968287791636311157351021803602045656656760031512038720212716548233250331981519L
tp105
aaa.