(lp0
(lp1
(lp2
(S'3a85bf8536abfdab55e1d5b9d3594211822a221a1cb94a87b3ee4774791a8603'
p3
L90065079117081079108117119109118118101085117100110075081187579017902502079357398209125055119053688161271678459943649299050969931557L
tp4
a(S'a78faaa83b6a1d55d63443b6b74d9138fb1b9ef37c27ff6ba3fa5b9a5e3961d1'
p5
L114080110104075118089101117049102083115085070090104083055494597321487395065497324295107457517609496948027919477115477584979373221751L
tp6
aa(lp7
(S'26319391b5e218faa8c509d9cbc5198b747b21da39f779bf09cd23fdda8ca9c4'
p8
L109079103086095045066079095107071083087076111097097048087856657031321685087473376959656121840193150534295728742026460766883262321502L
tp9
a(S'c1adaa2de232ed800445c7d2c91cdababd74fc6d8080ceafe483ca363eebf32a'
p10
L52056102102066097085072070114053107075097077101115052026668647589454894509394203501058238113482980471114013262392270505892471127686L
tp11
aa(lp12
(S'84b37fee4120269640b0a9c9b686a51aaad3993220218db2c7e08d0e943e5682'
p13
L107090110076070107077105112083048079079121077053099089995092500808507390046326518049903714900126238951207476430004055351072025920951L
tp14
a(S'7cf49a8492692b69dc3ba4cb4a6d098fe524bf412a157315c4186db2965472ae'
p15
L110118118108067074122108104105106068099057073079051089069143797310866360320969597511748010483173060656076962362350705777521536429416L
tp16
aa(lp17
(S'dfd6c9986ddfe94fbb9bad73973d375b64d17493b1a9cc5ae275f6a70c9b9f38'
p18
L75110090084048085111105068120087054102066074057055121046718122600085335396023731192093964080448631370823907844329427252129983147416L
tp19
a(S'c04b000daefc37788f0b71ac56f7e2aa190a7703b7a266875d22a21edd9e77b5'
p20
L66086122045109090051054057053116112104106070085113080954350526837049823256412093656434466683838225154051937559776125209552645062078L
tp21
aa(lp22
(S'1f68d66eebbcd627c6e6448a5e9c879273844beca47843c8d3e54c76d3c067e7'
p23
L83080074045065110113053068069114119103075052054086122098563371508495775950112811301715016908565854579965774786215639375642289094886L
tp24
a(S'2003849c8ce8ebb84c740515274a11188caddae8c81e37e97af90cc195d71296'
p25
L77089118053056090051078122095113052073055121069065122072086146955083477787151023733717666253550293600401105388996677899138923546287L
tp26
aaa(lp27
(lp28
(S'eb3beda9cfa2c35e945160ccfd86552d8a53bef259087209ad76e0957271ff3c'
p29
L117088109078105078116074111120086118052103120086056083147309525049349306080362458236640961070351251961841491986239797674497949156860L
tp30
a(S'b974a261892bd10bc550c863c3ac817b0b84e9f058899478c8c4a510c597c357'
p31
L85122065075081107102074051048098100085119089120103107034091523954545783217380596385300441436742466708173248305817429065414761281505L
tp32
aa(lp33
(S'23e336bf3649b6ee2749d61b4ff357568d15fe9f6ed76cfd8605995593f647b3'
p34
L111066109073121075085078073076049088109119068119084070056054312041869729834696770382899282651903673767401612573818844536752757031649L
tp35
a(S'95fcc8838ea08c15fb759c20fb8d471912811dbe94ede797ad1c2fbd533b84b0'
p36
L53076050065045054110069098048085048083098112097050055112005040363869897390137581207245271194419467271902180808871888175983270169800L
tp37
aa(lp38
(S'0f2ab3ed657dee6edce0643fad521c68f734f5e7d25ad9178249ffac2d1561df'
p39
L105078067121050052104051078122114095055069071045115080144959559615458411910679623939658335036407954511424100258262985191498175203851L
tp40
a(S'a9a6c4c06c6c2c64d4f2a366c7ec1f756afb2872d5be7da8acce0e19d0f11ec0'
p41
L119106069099068110068075095086057056068086105081045103048669613551900891599945848376144938045951249502886186154613882567449386598908L
tp42
aa(lp43
(S'7a5b3440e1f4b1fbe1547d87cceae6e6066e08dfa46b9b6a17f9ee5328d012de'
p44
L84073071050052085114066117055080104108098051049090102215751642869866762343878875685857589825991657298809752766993936734256403185385L
tp45
a(S'187730e1114e3edcf21b80a75817f8da601ffcf2c20ace2b2b8cef1ffa6e9da9'
p46
L56075074081101074107087114111109078066054045084065082083386772998610878216357237421869960865093478421016531903176339217827106588362L
tp47
aa(lp48
(S'642b295ffc192f2374d8ae2a4593b6fe008e83d5c5109f73e7d6e6a75295afa0'
p49
L67120117089051116069072083111100117086055118108102108159965410676477586823583999984318230705782048006445826901916172777467038846754L
tp50
a(S'7f70296d4bdce36b4cd9835c68669096a31c5f6140f78348465743e23e8fa6a1'
p51
L116070054090115114069067109108082051117120119074048049031753649308152038022582280475674809664284778011567289202310498668442008175461L
tp52
aaa(lp53
(lp54
(S'5c3d9d010f76b451087670581cdec68de529671d00f91edd764e58b27c01a3bf'
p55
L55065054066108056079120102095113116118082109118088111041852320543855115429593304620655317424480197657104698706670606090339753086717L
tp56
a(S'f99cdafbb4147b4e055b5e7d6383dc4446986a5717f49251d99c6c65a971ee7c'
p57
L49065079068119054052070109066114075090074052108102099083903341370702605278967853323325131424528161692628419169229614505267526721981L
tp58
aa(lp59
(S'1ff6afd45b34b8e3827085aa5e04321125cc7b7aadf67fd658f2079ff2c45e3c'
p60
L105073087048122109101108053103048072077085076111101118116742509817052049947860533786439305998203232413137373652099956589461179284167L
tp61
a(S'fb04a73f2535924fa0cbf2e240da211476402b1c0ff7abdf9f25a70abcb98925'
p62
L76070117071079112079078075048090106078075115078107095022407908886256024627152874930251073300618096224562961899102204018620725617476L
tp63
aa(lp64
(S'82e5813fef878a34ac1b20a3f90a74ca45fcaaca2aeda5a83fcd66d99ff25348'
p65
L51090097069069119082099107109045071051049081105052118096245035896985219661153913319105577250958088929668409264199821541251704379113L
tp66
a(S'c35c0b50c7bd69deff8292b748b7bc8caa890725aeb732e212ad28bfa1f44a46'
p67
L116122095070084103083080114110114095066077111120119050135478840245518424902374918752841172415886523275300113237338627787567205861523L
tp68
aa(lp69
(S'9bac9ab66d2999282ec348b9783318706cac31524e2d0ff59da8757070da3d57'
p70
L55056078045075105098045103122115073085090089113090090149976551416348718048695992159454329489757318813385469543306278627517201268873L
tp71
a(S'3951f0edc3a59906689efd796cee423309def099d523216b6d46e223aa510f71'
p72
L52065085056049056055114102109050108122070053067087076012197391279837587659865707146401391991907527671067852784627677581264477597917L
tp73
aa(lp74
(S'b4e2aa91f71ddc49cec4d06d5680071f67ca5aa143cd8362df05a6693e43ff33'
p75
L121090082079070049051109079115114086111101054053051056050377453921818394210080996359437560771909196462955274433583532068245841376299L
tp76
a(S'0d6fed5ca37e96779782d3e720b4ee4192609cb909f94fbd43e3b53e71002e62'
p77
L83075067081116112084121084057089072117086076117088076141916580239261565135151798642176669175170550667711846128822334713169365700487L
tp78
aaa(lp79
(lp80
(S'46949ae46e4b4ff9b06c6b45b064bc89e2755d8a0c670c88c2024b5e2c6c1ad2'
p81
L73079095112065069071112069118056066098054083089118082115187424939646186784072448441725435360025433033857354407108975008817935570678L
tp82
a(S'7f1cbb85384ae2bc84afacffdc49ef5f824cfdca6770bcdd4451fa32ad771a7f'
p83
L99113074097073101053069076100107101104118069072083115036761382142527436345102372535178111408639292090685706609459697915519306801683L
tp84
aa(lp85
(S'9aea3cd2c71a0fdfa7f6c4427349a3556f67f2b30d2b52821b4e6f7d5cb8fa3b'
p86
L74086112052077117108070099088107111089101071100089056032975856656475351019034722745786244906065064713955254843163629826623560581161L
tp87
a(S'ccde067daba4edf176d0ea475c0b68916205d2da7eece335865b3fc3258e2748'
p88
L90099069049078105054088119073086087111103045078049088068965319822379368900893039775689743723315414804545992923504240422406505740397L
tp89
aa(lp90
(S'b39b6ecaf1c73d1782301ff479b49bd6b6f879fca01ed825673dc7be7493cdee'
p91
L69056115116083117050083117110113051116049106105119087039468364877641213103562116255348991059316289302776868886017175588799075151800L
tp92
a(S'd91935ca3a4a851e18afd5efe50300d7fb84d7f2182f19ceb2b0150d592ab0f1'
p93
L119070075065076074086081108070080104101099122080098066072388433021488341844807642496889562928545813836439890049786970777568378191705L
tp94
aa(lp95
(S'67230c95e65ac984834ab0ae060cf61714b972d8433d3b448a61e795ab8cf9d1'
p96
L98115078045087101066073119077107054111118075052045071071612295737553228706943029765047043907711541535542105359826639321910982435342L
tp97
a(S'e73f77fc04b1f8d9c48263fb3289d89beaa44e40297605771aac0d89000ad9e2'
p98
L54113111086080073074078072098099087117108089066108117052885602945741302372823761372131551930706153728350533412913108617080399725333L
tp99
aa(lp100
(S'40710eff3fdec3d3eabda176c456b25674e285dfa07fbb883abe09c7e672f926'
p101
L78045090119117088048070066101072108115073097065113102985838644658062811613404620003750752917905737998605278023600283323830498416447L
tp102
a(S'dc719da2ef619cc8cadf735aed23a79d8e9f46dc7f0d71cf631a9464110bd903'
p103
L45114119120079071054087055119111112066056055067112101062531184438616989423914914656291696574582970752821443150396765203936757260402L
tp104
aaa(lp105
(lp106
(S'26a8709b9ab09756d223a2935c9156b7eb680473ce4d05c547423e75334a2358'
p107
L65090118097080115106109095085054085110117084075101102162805108668216026151162682183905423854805354830835588113978702579029161441572L
tp108
a(S'477ccb85a86de1773da5358a05342edaabcf78d1a31896510cea698e4f6988db'
p109
L84049065068102109112052076101065079107115081116100115098717974914962168124840992055027723327000710378617815819297280483955730435261L
tp110
aa(lp111
(S'00b8b005ad95c3c6e545a292f3b2d9d6b1adae04dd1084f1b211e93cd2242011'
p112
L70095114100072053106072113080070112085122113065051121124013177210909405890786195644217855594329884795680585701358296530355168559825L
tp113
a(S'909b90826d26e87b0ceea72a62aa53429d22f6e4afba58199ae5a76a1a66a533'
p114
L52088052103081068086121087100082089045050069078074068996101229782987739914630053654986131676741007076651115604437062744175699654182L
tp115
aa(lp116
(S'f7fa8fc008957ee3a826505cb16c08855f250eb7906197b216316e9806d9b007'
p117
L105087087081101121109074065080071122113088071112052052031832572304708317007208060770796445407378904836101239144059770488930678411036L
tp118
a(S'b19ef203e960ee296b915a7a3a917755ecae47de6974c2137f03e3f6ba48b08b'
p119
L78085077078114088056072121081068117083087065099072101102138768744340699302500598003492602250967799323934833158766872891614468512891L
tp120
aa(lp121
(S'961e79aac202f8f2c03fea1807bfa2b908d4380e6ca28913533199879305a441'
p122
L98045103083051067052051115090110054071081118055097086060441021160395363658401204261002051664947202262139904065435968609348911955031L
tp123
a(S'f273997000578a830e4bd76e3ec3f07eac19daaec3282ee9c753993d8e5f269b'
p124
L80078095082070122119122073087076112056118118048118055104475175434570145275173951737401900859720395470225485232614272744604623188845L
tp125
aa(lp126
(S'4f3fe02668e63f71f782940cac6ab33161a2b9c5165c5d1b1eff885c84c33d2d'
p127
L114101050111117121099106081053053107051121109075103102056072942587049491788946558048771306593050430488432435456218476400528377281824L
tp128
a(S'48be009c4a998e34e030019a5da4994ec9f5b2831e4e437a06910a27f0d44c2c'
p129
L45075112103072090052095101090103055045072110089078082175680137253489354338335071614474902887139149218170554364487694402004545061973L
tp130
aaa.