(lp0
(lp1
(lp2
I1359099
aI8887336
aa(lp3
I4087440
aI1036100
aa(lp4
I3319568
aI957105
aa(lp5
I4369913
aI2360649
aaa(lp6
(lp7
I7369037
aI6498673
aa(lp8
I3783071
aI5392312
aa(lp9
I2106198
aI6802066
aa(lp10
I9060256
aI8559442
aaa(lp11
(lp12
I3967689
aI7581842
aa(lp13
I8075284
aI9575021
aa(lp14
I2181584
aI6157214
aa(lp15
I8146354
aI4913153
aaa(lp16
(lp17
I9333449
aI3177987
aa(lp18
I124748
aI4523471
aa(lp19
I3855008
aI7810513
aa(lp20
I6333525
aI2558770
aaa(lp21
(lp22
I7173207
aI2195156
aa(lp23
I560529
aI9837168
aa(lp24
I6264858
aI6744798
aa(lp25
I10314022
aI3618300
aaa.