(lp0
(lp1
(lp2
I10529396
aI941380
aa(lp3
I15184593
aI6476835
aa(lp4
I14228823
aI1180444
aa(lp5
I6023843
aI11362172
aaa(lp6
(lp7
I7664145
aI15189099
aa(lp8
I4173
aI4693591
aa(lp9
I5836631
aI6000856
aa(lp10
I14383803
aI3779269
aaa(lp11
(lp12
I7982881
aI12971963
aa(lp13
I11988453
aI373618
aa(lp14
I12224771
aI8077037
aa(lp15
I15650927
aI10665975
aaa(lp16
(lp17
I14809007
aI7097014
aa(lp18
I11008372
aI11273337
aa(lp19
I9292026
aI4777722
aa(lp20
I2786575
aI609967
aaa(lp21
(lp22
I1347685
aI14560323
aa(lp23
I12389001
aI5068003
aa(lp24
I483165
aI8283593
aa(lp25
I9238653
aI10698799
aaa.