(lp0
(lp1
(lp2
I2486645
aI9184775
aa(lp3
I1633264
aI5840662
aa(lp4
I4689741
aI4242268
aa(lp5
I897893
aI4932156
aa(lp6
I5639735
aI8197806
aaa(lp7
(lp8
I3399173
aI7279342
aa(lp9
I125195
aI244327
aa(lp10
I1452134
aI8573548
aa(lp11
I8482093
aI2298994
aa(lp12
I4847448
aI1399303
aaa(lp13
(lp14
I4630872
aI2789570
aa(lp15
I7539472
aI1338083
aa(lp16
I2013756
aI9261104
aa(lp17
I4854297
aI4063380
aa(lp18
I8584336
aI6247188
aaa(lp19
(lp20
I8419249
aI628499
aa(lp21
I154392
aI1844798
aa(lp22
I3186158
aI4342733
aa(lp23
I6610573
aI8806249
aa(lp24
I889338
aI2412517
aaa(lp25
(lp26
I5803874
aI4174741
aa(lp27
I4912436
aI8155280
aa(lp28
I3116395
aI8403259
aa(lp29
I4947137
aI6417446
aa(lp30
I8876529
aI6002269
aaa.