(lp0
(lp1
(lp2
I6923192
aI4221348
aa(lp3
I4660118
aI2928975
aa(lp4
I6672177
aI3556343
aa(lp5
I5317501
aI5641365
aaa(lp6
(lp7
I5879546
aI1577624
aa(lp8
I2037054
aI4365359
aa(lp9
I2358733
aI4849631
aa(lp10
I528911
aI6219896
aaa(lp11
(lp12
I2835447
aI6530006
aa(lp13
I3703143
aI6641121
aa(lp14
I7107433
aI4673284
aa(lp15
I1473799
aI4922564
aaa(lp16
(lp17
I5313167
aI2780420
aa(lp18
I873232
aI4842705
aa(lp19
I868216
aI4997407
aa(lp20
I4278964
aI7493721
aaa(lp21
(lp22
I2150988
aI6242209
aa(lp23
I6420249
aI2654098
aa(lp24
I2392634
aI3466
aa(lp25
I2130680
aI6720575
aaa.