(lp0
(lp1
(lp2
I4647914
aI4457903
aa(lp3
I639061
aI6043694
aa(lp4
I817827
aI2882910
aa(lp5
I2423748
aI6164196
aaa(lp6
(lp7
I2433105
aI2736442
aa(lp8
I1319018
aI3702606
aa(lp9
I6458895
aI5796371
aa(lp10
I2450700
aI3493824
aaa(lp11
(lp12
I4876361
aI3213193
aa(lp13
I2705470
aI2343214
aa(lp14
I2808016
aI2416925
aa(lp15
I297687
aI966348
aaa(lp16
(lp17
I5976024
aI6251531
aa(lp18
I113940
aI6474288
aa(lp19
I930680
aI2427844
aa(lp20
I5782993
aI4416148
aaa(lp21
(lp22
I5521683
aI6676423
aa(lp23
I6297101
aI6176369
aa(lp24
I3414284
aI1225656
aa(lp25
I2820404
aI37168
aaa.